

Microchip MPLAB XC8 Assembler V2.40 build 20220703182018 
                                                                                               Fri Jul 28 19:01:41 2023

Microchip MPLAB XC8 C Compiler v2.40 (Free license) build 20220703182018 Og1 
     1                           	processor	16F887
     2                           	pagewidth 120
     3                           	opt	flic
     4                           	psect	strings,global,class=STRING,delta=2,noexec
     5                           	psect	cinit,global,class=CODE,merge=1,delta=2
     6                           	psect	bssBANK1,global,class=BANK1,space=1,delta=1,noexec
     7                           	psect	clrtext,global,class=CODE,delta=2
     8                           	psect	cstackBANK1,global,class=BANK1,space=1,delta=1,noexec
     9                           	psect	cstackCOMMON,global,class=COMMON,space=1,delta=1,noexec
    10                           	psect	cstackBANK0,global,class=BANK0,space=1,delta=1,noexec
    11                           	psect	maintext,global,class=CODE,split=1,delta=2
    12                           	psect	text1,local,class=CODE,merge=1,delta=2,group=2
    13                           	psect	text2,local,class=CODE,merge=1,delta=2,group=1
    14                           	psect	text3,local,class=CODE,merge=1,delta=2,group=1
    15                           	psect	text4,local,class=CODE,merge=1,delta=2
    16                           	psect	text5,local,class=CODE,merge=1,delta=2
    17                           	psect	text6,local,class=CODE,merge=1,delta=2
    18                           	psect	text7,local,class=CODE,merge=1,delta=2
    19                           	psect	text8,local,class=CODE,merge=1,delta=2
    20                           	psect	text9,local,class=CODE,merge=1,delta=2
    21                           	psect	text10,local,class=CODE,merge=1,delta=2,group=1
    22                           	psect	text11,local,class=CODE,merge=1,delta=2,group=1
    23                           	psect	text12,local,class=CODE,merge=1,delta=2,group=1
    24                           	psect	text13,local,class=CODE,merge=1,delta=2,group=1
    25                           	psect	text14,local,class=CODE,merge=1,delta=2,group=1
    26                           	psect	text15,local,class=CODE,merge=1,delta=2
    27                           	psect	text16,local,class=CODE,merge=1,delta=2,group=1
    28                           	psect	text17,local,class=CODE,merge=1,delta=2,group=1
    29                           	psect	text18,local,class=CODE,merge=1,delta=2
    30                           	psect	text19,local,class=CODE,merge=1,delta=2
    31                           	psect	text20,local,class=CODE,merge=1,delta=2
    32                           	psect	text21,local,class=CODE,merge=1,delta=2
    33                           	psect	text22,local,class=CODE,merge=1,delta=2
    34                           	psect	text23,local,class=CODE,merge=1,delta=2
    35                           	psect	text24,local,class=CODE,merge=1,delta=2
    36                           	psect	text25,local,class=CODE,merge=1,delta=2
    37                           	psect	idloc,global,abs,ovrld,class=IDLOC,space=5,delta=2,noexec
    38                           	psect	config,global,abs,ovrld,class=CONFIG,space=4,delta=2,noexec
    39                           	dabs	1,0x7E,2
    40     0000                     
    41                           ; Generated 22/03/2023 GMT
    42                           ; 
    43                           ; Copyright © 2023, Microchip Technology Inc. and its subsidiaries ("Microchip")
    44                           ; All rights reserved.
    45                           ; 
    46                           ; This software is developed by Microchip Technology Inc. and its subsidiaries ("Microch
      +                          ip").
    47                           ; 
    48                           ; Redistribution and use in source and binary forms, with or without modification, are
    49                           ; permitted provided that the following conditions are met:
    50                           ; 
    51                           ;     1. Redistributions of source code must retain the above copyright notice, this lis
      +                          t of
    52                           ;        conditions and the following disclaimer.
    53                           ; 
    54                           ;     2. Redistributions in binary form must reproduce the above copyright notice, this 
      +                          list
    55                           ;        of conditions and the following disclaimer in the documentation and/or other
    56                           ;        materials provided with the distribution. Publication is not required when
    57                           ;        this file is used in an embedded application.
    58                           ; 
    59                           ;     3. Microchip's name may not be used to endorse or promote products derived from th
      +                          is
    60                           ;        software without specific prior written permission.
    61                           ; 
    62                           ; THIS SOFTWARE IS PROVIDED BY MICROCHIP "AS IS" AND ANY EXPRESS OR IMPLIED WARRANTIES,
    63                           ; INCLUDING, BUT NOT LIMITED TO, THE IMPLIED WARRANTIES OF MERCHANTABILITY AND FITNESS F
      +                          OR
    64                           ; PURPOSE ARE DISCLAIMED.  IN NO EVENT SHALL MICROCHIP BE LIABLE FOR ANY DIRECT, INDIREC
      +                          T,
    65                           ; INCIDENTAL, SPECIAL, EXEMPLARY, OR CONSEQUENTIAL DAMAGES (INCLUDING BUT NOT LIMITED TO
    66                           ; PROCUREMENT OF SUBSTITUTE GOODS OR SERVICES; LOSS OF USE, DATA OR PROFITS; OR BUSINESS
    67                           ; INTERRUPTION) HOWSOEVER CAUSED AND ON ANY THEORY OF LIABILITY, WHETHER IN CONTRACT, ST
      +                          RICT
    68                           ; LIABILITY, OR TORT (INCLUDING NEGLIGENCE OR OTHERWISE) ARISING IN ANY WAY OUT OF THE U
      +                          SE OF
    69                           ; THIS SOFTWARE, EVEN IF ADVISED OF THE POSSIBILITY OF SUCH DAMAGE.
    70                           ; 
    71                           ; 
    72                           ; Code-generator required, PIC16F887 Definitions
    73                           ; 
    74                           ; SFR Addresses
    75     0000                     	;# 
    76     0001                     	;# 
    77     0002                     	;# 
    78     0003                     	;# 
    79     0004                     	;# 
    80     0005                     	;# 
    81     0006                     	;# 
    82     0007                     	;# 
    83     0008                     	;# 
    84     0009                     	;# 
    85     000A                     	;# 
    86     000B                     	;# 
    87     000C                     	;# 
    88     000D                     	;# 
    89     000E                     	;# 
    90     000E                     	;# 
    91     000F                     	;# 
    92     0010                     	;# 
    93     0011                     	;# 
    94     0012                     	;# 
    95     0013                     	;# 
    96     0014                     	;# 
    97     0015                     	;# 
    98     0015                     	;# 
    99     0016                     	;# 
   100     0017                     	;# 
   101     0018                     	;# 
   102     0019                     	;# 
   103     001A                     	;# 
   104     001B                     	;# 
   105     001B                     	;# 
   106     001C                     	;# 
   107     001D                     	;# 
   108     001E                     	;# 
   109     001F                     	;# 
   110     0081                     	;# 
   111     0085                     	;# 
   112     0086                     	;# 
   113     0087                     	;# 
   114     0088                     	;# 
   115     0089                     	;# 
   116     008C                     	;# 
   117     008D                     	;# 
   118     008E                     	;# 
   119     008F                     	;# 
   120     0090                     	;# 
   121     0091                     	;# 
   122     0092                     	;# 
   123     0093                     	;# 
   124     0093                     	;# 
   125     0093                     	;# 
   126     0094                     	;# 
   127     0095                     	;# 
   128     0096                     	;# 
   129     0097                     	;# 
   130     0098                     	;# 
   131     0099                     	;# 
   132     009A                     	;# 
   133     009B                     	;# 
   134     009C                     	;# 
   135     009D                     	;# 
   136     009E                     	;# 
   137     009F                     	;# 
   138     0105                     	;# 
   139     0107                     	;# 
   140     0108                     	;# 
   141     0109                     	;# 
   142     010C                     	;# 
   143     010C                     	;# 
   144     010D                     	;# 
   145     010E                     	;# 
   146     010F                     	;# 
   147     0185                     	;# 
   148     0187                     	;# 
   149     0188                     	;# 
   150     0189                     	;# 
   151     018C                     	;# 
   152     018D                     	;# 
   153     0000                     	;# 
   154     0001                     	;# 
   155     0002                     	;# 
   156     0003                     	;# 
   157     0004                     	;# 
   158     0005                     	;# 
   159     0006                     	;# 
   160     0007                     	;# 
   161     0008                     	;# 
   162     0009                     	;# 
   163     000A                     	;# 
   164     000B                     	;# 
   165     000C                     	;# 
   166     000D                     	;# 
   167     000E                     	;# 
   168     000E                     	;# 
   169     000F                     	;# 
   170     0010                     	;# 
   171     0011                     	;# 
   172     0012                     	;# 
   173     0013                     	;# 
   174     0014                     	;# 
   175     0015                     	;# 
   176     0015                     	;# 
   177     0016                     	;# 
   178     0017                     	;# 
   179     0018                     	;# 
   180     0019                     	;# 
   181     001A                     	;# 
   182     001B                     	;# 
   183     001B                     	;# 
   184     001C                     	;# 
   185     001D                     	;# 
   186     001E                     	;# 
   187     001F                     	;# 
   188     0081                     	;# 
   189     0085                     	;# 
   190     0086                     	;# 
   191     0087                     	;# 
   192     0088                     	;# 
   193     0089                     	;# 
   194     008C                     	;# 
   195     008D                     	;# 
   196     008E                     	;# 
   197     008F                     	;# 
   198     0090                     	;# 
   199     0091                     	;# 
   200     0092                     	;# 
   201     0093                     	;# 
   202     0093                     	;# 
   203     0093                     	;# 
   204     0094                     	;# 
   205     0095                     	;# 
   206     0096                     	;# 
   207     0097                     	;# 
   208     0098                     	;# 
   209     0099                     	;# 
   210     009A                     	;# 
   211     009B                     	;# 
   212     009C                     	;# 
   213     009D                     	;# 
   214     009E                     	;# 
   215     009F                     	;# 
   216     0105                     	;# 
   217     0107                     	;# 
   218     0108                     	;# 
   219     0109                     	;# 
   220     010C                     	;# 
   221     010C                     	;# 
   222     010D                     	;# 
   223     010E                     	;# 
   224     010F                     	;# 
   225     0185                     	;# 
   226     0187                     	;# 
   227     0188                     	;# 
   228     0189                     	;# 
   229     018C                     	;# 
   230     018D                     	;# 
   231     0000                     	;# 
   232     0001                     	;# 
   233     0002                     	;# 
   234     0003                     	;# 
   235     0004                     	;# 
   236     0005                     	;# 
   237     0006                     	;# 
   238     0007                     	;# 
   239     0008                     	;# 
   240     0009                     	;# 
   241     000A                     	;# 
   242     000B                     	;# 
   243     000C                     	;# 
   244     000D                     	;# 
   245     000E                     	;# 
   246     000E                     	;# 
   247     000F                     	;# 
   248     0010                     	;# 
   249     0011                     	;# 
   250     0012                     	;# 
   251     0013                     	;# 
   252     0014                     	;# 
   253     0015                     	;# 
   254     0015                     	;# 
   255     0016                     	;# 
   256     0017                     	;# 
   257     0018                     	;# 
   258     0019                     	;# 
   259     001A                     	;# 
   260     001B                     	;# 
   261     001B                     	;# 
   262     001C                     	;# 
   263     001D                     	;# 
   264     001E                     	;# 
   265     001F                     	;# 
   266     0081                     	;# 
   267     0085                     	;# 
   268     0086                     	;# 
   269     0087                     	;# 
   270     0088                     	;# 
   271     0089                     	;# 
   272     008C                     	;# 
   273     008D                     	;# 
   274     008E                     	;# 
   275     008F                     	;# 
   276     0090                     	;# 
   277     0091                     	;# 
   278     0092                     	;# 
   279     0093                     	;# 
   280     0093                     	;# 
   281     0093                     	;# 
   282     0094                     	;# 
   283     0095                     	;# 
   284     0096                     	;# 
   285     0097                     	;# 
   286     0098                     	;# 
   287     0099                     	;# 
   288     009A                     	;# 
   289     009B                     	;# 
   290     009C                     	;# 
   291     009D                     	;# 
   292     009E                     	;# 
   293     009F                     	;# 
   294     0105                     	;# 
   295     0107                     	;# 
   296     0108                     	;# 
   297     0109                     	;# 
   298     010C                     	;# 
   299     010C                     	;# 
   300     010D                     	;# 
   301     010E                     	;# 
   302     010F                     	;# 
   303     0185                     	;# 
   304     0187                     	;# 
   305     0188                     	;# 
   306     0189                     	;# 
   307     018C                     	;# 
   308     018D                     	;# 
   309     0000                     	;# 
   310     0001                     	;# 
   311     0002                     	;# 
   312     0003                     	;# 
   313     0004                     	;# 
   314     0005                     	;# 
   315     0006                     	;# 
   316     0007                     	;# 
   317     0008                     	;# 
   318     0009                     	;# 
   319     000A                     	;# 
   320     000B                     	;# 
   321     000C                     	;# 
   322     000D                     	;# 
   323     000E                     	;# 
   324     000E                     	;# 
   325     000F                     	;# 
   326     0010                     	;# 
   327     0011                     	;# 
   328     0012                     	;# 
   329     0013                     	;# 
   330     0014                     	;# 
   331     0015                     	;# 
   332     0015                     	;# 
   333     0016                     	;# 
   334     0017                     	;# 
   335     0018                     	;# 
   336     0019                     	;# 
   337     001A                     	;# 
   338     001B                     	;# 
   339     001B                     	;# 
   340     001C                     	;# 
   341     001D                     	;# 
   342     001E                     	;# 
   343     001F                     	;# 
   344     0081                     	;# 
   345     0085                     	;# 
   346     0086                     	;# 
   347     0087                     	;# 
   348     0088                     	;# 
   349     0089                     	;# 
   350     008C                     	;# 
   351     008D                     	;# 
   352     008E                     	;# 
   353     008F                     	;# 
   354     0090                     	;# 
   355     0091                     	;# 
   356     0092                     	;# 
   357     0093                     	;# 
   358     0093                     	;# 
   359     0093                     	;# 
   360     0094                     	;# 
   361     0095                     	;# 
   362     0096                     	;# 
   363     0097                     	;# 
   364     0098                     	;# 
   365     0099                     	;# 
   366     009A                     	;# 
   367     009B                     	;# 
   368     009C                     	;# 
   369     009D                     	;# 
   370     009E                     	;# 
   371     009F                     	;# 
   372     0105                     	;# 
   373     0107                     	;# 
   374     0108                     	;# 
   375     0109                     	;# 
   376     010C                     	;# 
   377     010C                     	;# 
   378     010D                     	;# 
   379     010E                     	;# 
   380     010F                     	;# 
   381     0185                     	;# 
   382     0187                     	;# 
   383     0188                     	;# 
   384     0189                     	;# 
   385     018C                     	;# 
   386     018D                     	;# 
   387     0000                     	;# 
   388     0001                     	;# 
   389     0002                     	;# 
   390     0003                     	;# 
   391     0004                     	;# 
   392     0005                     	;# 
   393     0006                     	;# 
   394     0007                     	;# 
   395     0008                     	;# 
   396     0009                     	;# 
   397     000A                     	;# 
   398     000B                     	;# 
   399     000C                     	;# 
   400     000D                     	;# 
   401     000E                     	;# 
   402     000E                     	;# 
   403     000F                     	;# 
   404     0010                     	;# 
   405     0011                     	;# 
   406     0012                     	;# 
   407     0013                     	;# 
   408     0014                     	;# 
   409     0015                     	;# 
   410     0015                     	;# 
   411     0016                     	;# 
   412     0017                     	;# 
   413     0018                     	;# 
   414     0019                     	;# 
   415     001A                     	;# 
   416     001B                     	;# 
   417     001B                     	;# 
   418     001C                     	;# 
   419     001D                     	;# 
   420     001E                     	;# 
   421     001F                     	;# 
   422     0081                     	;# 
   423     0085                     	;# 
   424     0086                     	;# 
   425     0087                     	;# 
   426     0088                     	;# 
   427     0089                     	;# 
   428     008C                     	;# 
   429     008D                     	;# 
   430     008E                     	;# 
   431     008F                     	;# 
   432     0090                     	;# 
   433     0091                     	;# 
   434     0092                     	;# 
   435     0093                     	;# 
   436     0093                     	;# 
   437     0093                     	;# 
   438     0094                     	;# 
   439     0095                     	;# 
   440     0096                     	;# 
   441     0097                     	;# 
   442     0098                     	;# 
   443     0099                     	;# 
   444     009A                     	;# 
   445     009B                     	;# 
   446     009C                     	;# 
   447     009D                     	;# 
   448     009E                     	;# 
   449     009F                     	;# 
   450     0105                     	;# 
   451     0107                     	;# 
   452     0108                     	;# 
   453     0109                     	;# 
   454     010C                     	;# 
   455     010C                     	;# 
   456     010D                     	;# 
   457     010E                     	;# 
   458     010F                     	;# 
   459     0185                     	;# 
   460     0187                     	;# 
   461     0188                     	;# 
   462     0189                     	;# 
   463     018C                     	;# 
   464     018D                     	;# 
   465     001A                     _RCREG	set	26
   466     0019                     _TXREG	set	25
   467     0018                     _RCSTAbits	set	24
   468     0008                     _PORTD	set	8
   469     000C                     _PIR1bits	set	12
   470     001E                     _ADRESH	set	30
   471     001F                     _ADCON0bits	set	31
   472     0006                     _PORTBbits	set	6
   473     0009                     _PORTEbits	set	9
   474     0005                     _PORTAbits	set	5
   475     004A                     _RE2	set	74
   476     0066                     _ADIF	set	102
   477     009A                     _SPBRGH	set	154
   478     0099                     _SPBRG	set	153
   479     0098                     _TXSTAbits	set	152
   480     008F                     _OSCCONbits	set	143
   481     0089                     _TRISE	set	137
   482     0088                     _TRISD	set	136
   483     009F                     _ADCON1bits	set	159
   484     0086                     _TRISBbits	set	134
   485     0089                     _TRISEbits	set	137
   486     0085                     _TRISAbits	set	133
   487     0187                     _BAUDCTLbits	set	391
   488     0189                     _ANSELH	set	393
   489     0188                     _ANSEL	set	392
   490     0189                     _ANSELHbits	set	393
   491     0188                     _ANSELbits	set	392
   492                           
   493                           	psect	strings
   494     0800                     __pstrings:
   495     0800                     stringtab:
   496     0800                     __stringtab:
   497                           
   498                           ;	String table - string pointers are 1 byte each
   499     0800  1BFF               	btfsc	btemp+1,7
   500     0801  280A               	ljmp	stringcode
   501     0802  1383               	bcf	3,7
   502     0803  187F               	btfsc	btemp+1,0
   503     0804  1783               	bsf	3,7
   504     0805  0800               	movf	0,w
   505     0806  0A84               	incf	4,f
   506     0807  1903               	skipnz
   507     0808  0AFF               	incf	btemp+1,f
   508     0809  0008               	return
   509     080A                     stringcode:
   510     080A                     stringdir:
   511     080A  3008               	movlw	high stringdir
   512     080B  008A               	movwf	10
   513     080C  0804               	movf	4,w
   514     080D  0A84               	incf	4,f
   515     080E  0782               	addwf	2,f
   516     080F                     __stringbase:
   517     080F  3400               	retlw	0
   518     0810                     __end_of__stringtab:
   519     0810                     STR_2:
   520     0810  340D               	retlw	13
   521     0811  345F               	retlw	95	;'_'
   522     0812  345F               	retlw	95	;'_'
   523     0813  3450               	retlw	80	;'P'
   524     0814  3472               	retlw	114	;'r'
   525     0815  3465               	retlw	101	;'e'
   526     0816  3473               	retlw	115	;'s'
   527     0817  3469               	retlw	105	;'i'
   528     0818  346F               	retlw	111	;'o'
   529     0819  346E               	retlw	110	;'n'
   530     081A  3465               	retlw	101	;'e'
   531     081B  3420               	retlw	32	;' '
   532     081C  3431               	retlw	49	;'1'
   533     081D  3420               	retlw	32	;' '
   534     081E  3470               	retlw	112	;'p'
   535     081F  3461               	retlw	97	;'a'
   536     0820  3472               	retlw	114	;'r'
   537     0821  3461               	retlw	97	;'a'
   538     0822  3420               	retlw	32	;' '
   539     0823  346C               	retlw	108	;'l'
   540     0824  3465               	retlw	101	;'e'
   541     0825  3465               	retlw	101	;'e'
   542     0826  3472               	retlw	114	;'r'
   543     0827  3420               	retlw	32	;' '
   544     0828  3465               	retlw	101	;'e'
   545     0829  346C               	retlw	108	;'l'
   546     082A  3420               	retlw	32	;' '
   547     082B  3470               	retlw	112	;'p'
   548     082C  346F               	retlw	111	;'o'
   549     082D  3474               	retlw	116	;'t'
   550     082E  3465               	retlw	101	;'e'
   551     082F  346E               	retlw	110	;'n'
   552     0830  3463               	retlw	99	;'c'
   553     0831  3469               	retlw	105	;'i'
   554     0832  346F               	retlw	111	;'o'
   555     0833  346D               	retlw	109	;'m'
   556     0834  3465               	retlw	101	;'e'
   557     0835  3474               	retlw	116	;'t'
   558     0836  3472               	retlw	114	;'r'
   559     0837  346F               	retlw	111	;'o'
   560     0838  345F               	retlw	95	;'_'
   561     0839  345F               	retlw	95	;'_'
   562     083A  3400               	retlw	0
   563     083B                     STR_7:
   564     083B  340D               	retlw	13
   565     083C  3420               	retlw	32	;' '
   566     083D  3445               	retlw	69	;'E'
   567     083E  3473               	retlw	115	;'s'
   568     083F  3463               	retlw	99	;'c'
   569     0840  3472               	retlw	114	;'r'
   570     0841  3469               	retlw	105	;'i'
   571     0842  3462               	retlw	98	;'b'
   572     0843  3461               	retlw	97	;'a'
   573     0844  3420               	retlw	32	;' '
   574     0845  342B               	retlw	43	;'+'
   575     0846  3420               	retlw	32	;' '
   576     0847  346F               	retlw	111	;'o'
   577     0848  3420               	retlw	32	;' '
   578     0849  342D               	retlw	45	;'-'
   579     084A  3420               	retlw	32	;' '
   580     084B  3470               	retlw	112	;'p'
   581     084C  3461               	retlw	97	;'a'
   582     084D  3472               	retlw	114	;'r'
   583     084E  3461               	retlw	97	;'a'
   584     084F  3420               	retlw	32	;' '
   585     0850  346D               	retlw	109	;'m'
   586     0851  346F               	retlw	111	;'o'
   587     0852  3464               	retlw	100	;'d'
   588     0853  3469               	retlw	105	;'i'
   589     0854  3466               	retlw	102	;'f'
   590     0855  3469               	retlw	105	;'i'
   591     0856  3463               	retlw	99	;'c'
   592     0857  3461               	retlw	97	;'a'
   593     0858  3472               	retlw	114	;'r'
   594     0859  3420               	retlw	32	;' '
   595     085A  3465               	retlw	101	;'e'
   596     085B  346C               	retlw	108	;'l'
   597     085C  3420               	retlw	32	;' '
   598     085D  3463               	retlw	99	;'c'
   599     085E  346F               	retlw	111	;'o'
   600     085F  346E               	retlw	110	;'n'
   601     0860  3474               	retlw	116	;'t'
   602     0861  3461               	retlw	97	;'a'
   603     0862  3464               	retlw	100	;'d'
   604     0863  346F               	retlw	111	;'o'
   605     0864  3472               	retlw	114	;'r'
   606     0865  3400               	retlw	0
   607     0866                     STR_3:
   608     0866  340D               	retlw	13
   609     0867  345F               	retlw	95	;'_'
   610     0868  345F               	retlw	95	;'_'
   611     0869  3450               	retlw	80	;'P'
   612     086A  3472               	retlw	114	;'r'
   613     086B  3465               	retlw	101	;'e'
   614     086C  3473               	retlw	115	;'s'
   615     086D  3469               	retlw	105	;'i'
   616     086E  346F               	retlw	111	;'o'
   617     086F  346E               	retlw	110	;'n'
   618     0870  3465               	retlw	101	;'e'
   619     0871  3420               	retlw	32	;' '
   620     0872  3432               	retlw	50	;'2'
   621     0873  3420               	retlw	32	;' '
   622     0874  3470               	retlw	112	;'p'
   623     0875  3461               	retlw	97	;'a'
   624     0876  3472               	retlw	114	;'r'
   625     0877  3461               	retlw	97	;'a'
   626     0878  3420               	retlw	32	;' '
   627     0879  3465               	retlw	101	;'e'
   628     087A  346E               	retlw	110	;'n'
   629     087B  3476               	retlw	118	;'v'
   630     087C  3469               	retlw	105	;'i'
   631     087D  3461               	retlw	97	;'a'
   632     087E  3472               	retlw	114	;'r'
   633     087F  3420               	retlw	32	;' '
   634     0880  342B               	retlw	43	;'+'
   635     0881  3420               	retlw	32	;' '
   636     0882  346F               	retlw	111	;'o'
   637     0883  3420               	retlw	32	;' '
   638     0884  342D               	retlw	45	;'-'
   639     0885  345F               	retlw	95	;'_'
   640     0886  345F               	retlw	95	;'_'
   641     0887  3400               	retlw	0
   642     0888                     STR_8:
   643     0888  340D               	retlw	13
   644     0889  344E               	retlw	78	;'N'
   645     088A  3475               	retlw	117	;'u'
   646     088B  346D               	retlw	109	;'m'
   647     088C  3465               	retlw	101	;'e'
   648     088D  3472               	retlw	114	;'r'
   649     088E  346F               	retlw	111	;'o'
   650     088F  3420               	retlw	32	;' '
   651     0890  3461               	retlw	97	;'a'
   652     0891  3463               	retlw	99	;'c'
   653     0892  3474               	retlw	116	;'t'
   654     0893  3475               	retlw	117	;'u'
   655     0894  3461               	retlw	97	;'a'
   656     0895  346C               	retlw	108	;'l'
   657     0896  3420               	retlw	32	;' '
   658     0897  3463               	retlw	99	;'c'
   659     0898  346F               	retlw	111	;'o'
   660     0899  346E               	retlw	110	;'n'
   661     089A  3474               	retlw	116	;'t'
   662     089B  3461               	retlw	97	;'a'
   663     089C  3464               	retlw	100	;'d'
   664     089D  346F               	retlw	111	;'o'
   665     089E  3472               	retlw	114	;'r'
   666     089F  343A               	retlw	58	;':'
   667     08A0  3420               	retlw	32	;' '
   668     08A1  3400               	retlw	0
   669     08A2                     STR_4:
   670     08A2  340D               	retlw	13
   671     08A3  345F               	retlw	95	;'_'
   672     08A4  345F               	retlw	95	;'_'
   673     08A5  344C               	retlw	76	;'L'
   674     08A6  3465               	retlw	101	;'e'
   675     08A7  3463               	retlw	99	;'c'
   676     08A8  3474               	retlw	116	;'t'
   677     08A9  3475               	retlw	117	;'u'
   678     08AA  3472               	retlw	114	;'r'
   679     08AB  3461               	retlw	97	;'a'
   680     08AC  3420               	retlw	32	;' '
   681     08AD  3464               	retlw	100	;'d'
   682     08AE  3465               	retlw	101	;'e'
   683     08AF  346C               	retlw	108	;'l'
   684     08B0  3420               	retlw	32	;' '
   685     08B1  3450               	retlw	80	;'P'
   686     08B2  344F               	retlw	79	;'O'
   687     08B3  3454               	retlw	84	;'T'
   688     08B4  345F               	retlw	95	;'_'
   689     08B5  345F               	retlw	95	;'_'
   690     08B6  3400               	retlw	0
   691     08B7                     STR_5:
   692     08B7  340D               	retlw	13
   693     08B8  344E               	retlw	78	;'N'
   694     08B9  3475               	retlw	117	;'u'
   695     08BA  346D               	retlw	109	;'m'
   696     08BB  3465               	retlw	101	;'e'
   697     08BC  3472               	retlw	114	;'r'
   698     08BD  346F               	retlw	111	;'o'
   699     08BE  3420               	retlw	32	;' '
   700     08BF  3461               	retlw	97	;'a'
   701     08C0  3463               	retlw	99	;'c'
   702     08C1  3474               	retlw	116	;'t'
   703     08C2  3475               	retlw	117	;'u'
   704     08C3  3461               	retlw	97	;'a'
   705     08C4  346C               	retlw	108	;'l'
   706     08C5  343A               	retlw	58	;':'
   707     08C6  3420               	retlw	32	;' '
   708     08C7  3400               	retlw	0
   709     08C8                     STR_11:
   710     08C8  3443               	retlw	67	;'C'
   711     08C9  346F               	retlw	111	;'o'
   712     08CA  346E               	retlw	110	;'n'
   713     08CB  3474               	retlw	116	;'t'
   714     08CC  3461               	retlw	97	;'a'
   715     08CD  3464               	retlw	100	;'d'
   716     08CE  346F               	retlw	111	;'o'
   717     08CF  3472               	retlw	114	;'r'
   718     08D0  343A               	retlw	58	;':'
   719     08D1  3400               	retlw	0
   720     08D2                     STR_10:
   721     08D2  3450               	retlw	80	;'P'
   722     08D3  346F               	retlw	111	;'o'
   723     08D4  3474               	retlw	116	;'t'
   724     08D5  3431               	retlw	49	;'1'
   725     08D6  343A               	retlw	58	;':'
   726     08D7  3400               	retlw	0
   727     08D8                     STR_1:
   728     08D8  340D               	retlw	13
   729     08D9  3434               	retlw	52	;'4'
   730     08DA  3439               	retlw	57	;'9'
   731     08DB  3400               	retlw	0
   732     08DC                     STR_6:
   733     08DC  340D               	retlw	13
   734     08DD  3400               	retlw	0
   735     08DC                     
   736                           	psect	cinit
   737     07F3                     start_initialization:	
   738                           ; #config settings
   739                           
   740     07F3                     __initialization:
   741                           
   742                           ; Clear objects allocated to BANK1
   743     07F3  1383               	bcf	3,7	;select IRP bank0
   744     07F4  30CB               	movlw	low __pbssBANK1
   745     07F5  0084               	movwf	4
   746     07F6  30DE               	movlw	low (__pbssBANK1+19)
   747     07F7  160A  118A  2775  120A  118A  	fcall	clear_ram0
   748     07FC                     end_of_initialization:	
   749                           ;End of C runtime variable initialization code
   750                           
   751     07FC                     __end_of__initialization:
   752     07FC  0183               	clrf	3
   753     07FD  120A  158A  2DA3   	ljmp	_main	;jump to C main() function
   754                           
   755                           	psect	bssBANK1
   756     00CB                     __pbssBANK1:
   757     00CB                     _cpu:
   758     00CB                     	ds	2
   759     00CD                     _buffer:
   760     00CD                     	ds	17
   761                           
   762                           	psect	clrtext
   763     1775                     clear_ram0:	
   764                           ;	Called with FSR containing the base address, and
   765                           ;	W with the last address+1
   766                           
   767     1775  0064               	clrwdt	;clear the watchdog before getting into this loop
   768     1776                     clrloop0:
   769     1776  0180               	clrf	0	;clear RAM location pointed to by FSR
   770     1777  0A84               	incf	4,f	;increment pointer
   771     1778  0604               	xorwf	4,w	;XOR with final address
   772     1779  1903               	btfsc	3,2	;have we reached the end yet?
   773     177A  3400               	retlw	0	;all done for this memory range, return
   774     177B  0604               	xorwf	4,w	;XOR again to restore value
   775     177C  2F76               	goto	clrloop0	;do the next byte
   776                           
   777                           	psect	cstackBANK1
   778     00A0                     __pcstackBANK1:
   779     00A0                     ?_map:
   780     00A0                     map@value:	
   781                           ; 4 bytes @ 0x0
   782                           
   783                           
   784                           ; 4 bytes @ 0x0
   785     00A0                     	ds	4
   786     00A4                     map@fromLow:
   787                           
   788                           ; 4 bytes @ 0x4
   789     00A4                     	ds	4
   790     00A8                     map@fromHigh:
   791                           
   792                           ; 4 bytes @ 0x8
   793     00A8                     	ds	4
   794     00AC                     map@toLow:
   795                           
   796                           ; 4 bytes @ 0xC
   797     00AC                     	ds	4
   798     00B0                     map@toHigh:
   799                           
   800                           ; 4 bytes @ 0x10
   801     00B0                     	ds	4
   802     00B4                     ?___fltol:
   803     00B4                     ___fltol@f1:	
   804                           ; 4 bytes @ 0x14
   805                           
   806                           
   807                           ; 4 bytes @ 0x14
   808     00B4                     	ds	4
   809     00B8                     ??___fltol:
   810                           
   811                           ; 1 bytes @ 0x18
   812     00B8                     	ds	4
   813     00BC                     ___fltol@sign1:
   814                           
   815                           ; 1 bytes @ 0x1C
   816     00BC                     	ds	1
   817     00BD                     ___fltol@exp1:
   818                           
   819                           ; 1 bytes @ 0x1D
   820     00BD                     	ds	1
   821     00BE                     ??_main:
   822                           
   823                           ; 1 bytes @ 0x1E
   824     00BE                     	ds	3
   825     00C1                     main@voltaje:
   826                           
   827                           ; 3 bytes @ 0x21
   828     00C1                     	ds	3
   829     00C4                     main@contador:
   830                           
   831                           ; 3 bytes @ 0x24
   832     00C4                     	ds	3
   833     00C7                     main@adcV:
   834                           
   835                           ; 2 bytes @ 0x27
   836     00C7                     	ds	2
   837     00C9                     main@temp:
   838                           
   839                           ; 2 bytes @ 0x29
   840     00C9                     	ds	2
   841                           
   842                           	psect	cstackCOMMON
   843     0070                     __pcstackCOMMON:
   844     0070                     ?_setup:
   845     0070                     ?_UART_read_char:	
   846                           ; 1 bytes @ 0x0
   847                           
   848     0070                     ??_UART_read_char:	
   849                           ; 1 bytes @ 0x0
   850                           
   851     0070                     ?_Lcd_Clear:	
   852                           ; 1 bytes @ 0x0
   853                           
   854     0070                     ?_Lcd_Write_String:	
   855                           ; 1 bytes @ 0x0
   856                           
   857     0070                     ?_Lcd_Write_Char:	
   858                           ; 1 bytes @ 0x0
   859                           
   860     0070                     ?_Lcd_Init:	
   861                           ; 1 bytes @ 0x0
   862                           
   863     0070                     ?_UART_RX_CONFIG:	
   864                           ; 1 bytes @ 0x0
   865                           
   866     0070                     ?_UART_TX_CONFIG:	
   867                           ; 1 bytes @ 0x0
   868                           
   869     0070                     ?_adc_init:	
   870                           ; 1 bytes @ 0x0
   871                           
   872     0070                     ?_main:	
   873                           ; 1 bytes @ 0x0
   874                           
   875     0070                     ?_Lcd_Port:	
   876                           ; 1 bytes @ 0x0
   877                           
   878     0070                     ??_Lcd_Port:	
   879                           ; 1 bytes @ 0x0
   880                           
   881     0070                     ?_Lcd_Cmd:	
   882                           ; 1 bytes @ 0x0
   883                           
   884     0070                     ?__Umul8_16:	
   885                           ; 1 bytes @ 0x0
   886                           
   887     0070                     ?_adc_read:	
   888                           ; 2 bytes @ 0x0
   889                           
   890     0070                     ?___lwdiv:	
   891                           ; 2 bytes @ 0x0
   892                           
   893     0070                     ?___xxtofl:	
   894                           ; 2 bytes @ 0x0
   895                           
   896     0070                     Lcd_Port@a:	
   897                           ; 4 bytes @ 0x0
   898                           
   899     0070                     __Umul8_16@multiplicand:	
   900                           ; 1 bytes @ 0x0
   901                           
   902     0070                     adc_init@channel:	
   903                           ; 1 bytes @ 0x0
   904                           
   905     0070                     UART_RX_CONFIG@baudrate:	
   906                           ; 2 bytes @ 0x0
   907                           
   908     0070                     UART_TX_CONFIG@baudrate:	
   909                           ; 2 bytes @ 0x0
   910                           
   911     0070                     ___lwdiv@divisor:	
   912                           ; 2 bytes @ 0x0
   913                           
   914     0070                     ___xxtofl@val:	
   915                           ; 2 bytes @ 0x0
   916                           
   917                           
   918                           ; 4 bytes @ 0x0
   919     0070                     	ds	1
   920     0071                     ??_Lcd_Write_Char:
   921     0071                     ??_Lcd_Cmd:	
   922                           ; 1 bytes @ 0x1
   923                           
   924                           
   925                           ; 1 bytes @ 0x1
   926     0071                     	ds	1
   927     0072                     ??_UART_RX_CONFIG:
   928     0072                     ??_UART_TX_CONFIG:	
   929                           ; 1 bytes @ 0x2
   930                           
   931     0072                     ??__Umul8_16:	
   932                           ; 1 bytes @ 0x2
   933                           
   934     0072                     ??_adc_init:	
   935                           ; 1 bytes @ 0x2
   936                           
   937     0072                     ??_adc_read:	
   938                           ; 1 bytes @ 0x2
   939                           
   940     0072                     Lcd_Write_Char@a:	
   941                           ; 1 bytes @ 0x2
   942                           
   943     0072                     ___lwdiv@dividend:	
   944                           ; 1 bytes @ 0x2
   945                           
   946                           
   947                           ; 2 bytes @ 0x2
   948     0072                     	ds	1
   949     0073                     ??_Lcd_Write_String:
   950     0073                     Lcd_Cmd@a:	
   951                           ; 1 bytes @ 0x3
   952                           
   953     0073                     Lcd_Write_String@i:	
   954                           ; 1 bytes @ 0x3
   955                           
   956                           
   957                           ; 2 bytes @ 0x3
   958     0073                     	ds	1
   959     0074                     ??_Lcd_Clear:
   960     0074                     ?_Lcd_Set_Cursor:	
   961                           ; 1 bytes @ 0x4
   962                           
   963     0074                     ??_Lcd_Init:	
   964                           ; 1 bytes @ 0x4
   965                           
   966     0074                     ??___lwdiv:	
   967                           ; 1 bytes @ 0x4
   968                           
   969     0074                     ??___xxtofl:	
   970                           ; 1 bytes @ 0x4
   971                           
   972     0074                     Lcd_Set_Cursor@b:	
   973                           ; 1 bytes @ 0x4
   974                           
   975     0074                     adc_read@adcValue:	
   976                           ; 1 bytes @ 0x4
   977                           
   978     0074                     __Umul8_16@product:	
   979                           ; 2 bytes @ 0x4
   980                           
   981                           
   982                           ; 2 bytes @ 0x4
   983     0074                     	ds	1
   984     0075                     ??_Lcd_Set_Cursor:
   985     0075                     Lcd_Set_Cursor@a:	
   986                           ; 1 bytes @ 0x5
   987                           
   988     0075                     Lcd_Write_String@a:	
   989                           ; 1 bytes @ 0x5
   990                           
   991     0075                     ___lwdiv@quotient:	
   992                           ; 1 bytes @ 0x5
   993                           
   994                           
   995                           ; 2 bytes @ 0x5
   996     0075                     	ds	1
   997     0076                     ??_setup:
   998     0076                     Lcd_Set_Cursor@temp:	
   999                           ; 1 bytes @ 0x6
  1000                           
  1001     0076                     __Umul8_16@word_mpld:	
  1002                           ; 1 bytes @ 0x6
  1003                           
  1004                           
  1005                           ; 2 bytes @ 0x6
  1006     0076                     	ds	1
  1007     0077                     ___lwdiv@counter:
  1008                           
  1009                           ; 1 bytes @ 0x7
  1010     0077                     	ds	1
  1011     0078                     ?___lwmod:
  1012     0078                     __Umul8_16@multiplier:	
  1013                           ; 2 bytes @ 0x8
  1014                           
  1015     0078                     ___xxtofl@sign:	
  1016                           ; 1 bytes @ 0x8
  1017                           
  1018     0078                     ___lwmod@divisor:	
  1019                           ; 1 bytes @ 0x8
  1020                           
  1021                           
  1022                           ; 2 bytes @ 0x8
  1023     0078                     	ds	1
  1024     0079                     ___fladd@signs:
  1025     0079                     ___xxtofl@exp:	
  1026                           ; 1 bytes @ 0x9
  1027                           
  1028                           
  1029                           ; 1 bytes @ 0x9
  1030     0079                     	ds	1
  1031     007A                     ___fladd@aexp:
  1032     007A                     ___lwmod@dividend:	
  1033                           ; 1 bytes @ 0xA
  1034                           
  1035     007A                     ___xxtofl@arg:	
  1036                           ; 2 bytes @ 0xA
  1037                           
  1038                           
  1039                           ; 4 bytes @ 0xA
  1040     007A                     	ds	1
  1041     007B                     ___fladd@bexp:
  1042                           
  1043                           ; 1 bytes @ 0xB
  1044     007B                     	ds	1
  1045     007C                     ??___lwmod:
  1046     007C                     ___fladd@grs:	
  1047                           ; 1 bytes @ 0xC
  1048                           
  1049                           
  1050                           ; 1 bytes @ 0xC
  1051     007C                     	ds	1
  1052     007D                     ??___flsub:
  1053     007D                     ___lwmod@counter:	
  1054                           ; 1 bytes @ 0xD
  1055                           
  1056                           
  1057                           ; 1 bytes @ 0xD
  1058     007D                     	ds	1
  1059     007E                     ??_UART_write_char:
  1060     007E                     ??_map:	
  1061                           ; 1 bytes @ 0xE
  1062                           
  1063                           
  1064                           	psect	cstackBANK0
  1065     0020                     __pcstackBANK0:	
  1066                           ; 1 bytes @ 0xE
  1067                           
  1068     0020                     ?_utoa:
  1069     0020                     ?___fladd:	
  1070                           ; 1 bytes @ 0x0
  1071                           
  1072     0020                     utoa@val:	
  1073                           ; 4 bytes @ 0x0
  1074                           
  1075     0020                     ___fladd@b:	
  1076                           ; 2 bytes @ 0x0
  1077                           
  1078                           
  1079                           ; 4 bytes @ 0x0
  1080     0020                     	ds	2
  1081     0022                     utoa@base:
  1082                           
  1083                           ; 2 bytes @ 0x2
  1084     0022                     	ds	2
  1085     0024                     ??_utoa:
  1086     0024                     ___fladd@a:	
  1087                           ; 1 bytes @ 0x4
  1088                           
  1089                           
  1090                           ; 4 bytes @ 0x4
  1091     0024                     	ds	1
  1092     0025                     utoa@v:
  1093                           
  1094                           ; 2 bytes @ 0x5
  1095     0025                     	ds	2
  1096     0027                     utoa@c:
  1097                           
  1098                           ; 1 bytes @ 0x7
  1099     0027                     	ds	1
  1100     0028                     ??___fladd:
  1101     0028                     utoa@buf:	
  1102                           ; 1 bytes @ 0x8
  1103                           
  1104                           
  1105                           ; 1 bytes @ 0x8
  1106     0028                     	ds	1
  1107     0029                     ?_UART_write_char:
  1108     0029                     UART_write_char@c:	
  1109                           ; 1 bytes @ 0x9
  1110                           
  1111                           
  1112                           ; 2 bytes @ 0x9
  1113     0029                     	ds	7
  1114     0030                     ?___flsub:
  1115     0030                     ___flsub@a:	
  1116                           ; 4 bytes @ 0x10
  1117                           
  1118                           
  1119                           ; 4 bytes @ 0x10
  1120     0030                     	ds	4
  1121     0034                     ___flsub@b:
  1122                           
  1123                           ; 4 bytes @ 0x14
  1124     0034                     	ds	4
  1125     0038                     ?___flmul:
  1126     0038                     ___flmul@b:	
  1127                           ; 4 bytes @ 0x18
  1128                           
  1129                           
  1130                           ; 4 bytes @ 0x18
  1131     0038                     	ds	4
  1132     003C                     ___flmul@a:
  1133                           
  1134                           ; 4 bytes @ 0x1C
  1135     003C                     	ds	4
  1136     0040                     ??___flmul:
  1137                           
  1138                           ; 1 bytes @ 0x20
  1139     0040                     	ds	5
  1140     0045                     ___flmul@sign:
  1141                           
  1142                           ; 1 bytes @ 0x25
  1143     0045                     	ds	1
  1144     0046                     ___flmul@grs:
  1145                           
  1146                           ; 4 bytes @ 0x26
  1147     0046                     	ds	4
  1148     004A                     ___flmul@aexp:
  1149                           
  1150                           ; 1 bytes @ 0x2A
  1151     004A                     	ds	1
  1152     004B                     ___flmul@bexp:
  1153                           
  1154                           ; 1 bytes @ 0x2B
  1155     004B                     	ds	1
  1156     004C                     ___flmul@prod:
  1157                           
  1158                           ; 4 bytes @ 0x2C
  1159     004C                     	ds	4
  1160     0050                     ___flmul@temp:
  1161                           
  1162                           ; 2 bytes @ 0x30
  1163     0050                     	ds	2
  1164     0052                     ?___fldiv:
  1165     0052                     ___fldiv@a:	
  1166                           ; 4 bytes @ 0x32
  1167                           
  1168                           
  1169                           ; 4 bytes @ 0x32
  1170     0052                     	ds	4
  1171     0056                     ___fldiv@b:
  1172                           
  1173                           ; 4 bytes @ 0x36
  1174     0056                     	ds	4
  1175     005A                     ??___fldiv:
  1176                           
  1177                           ; 1 bytes @ 0x3A
  1178     005A                     	ds	5
  1179     005F                     ___fldiv@rem:
  1180                           
  1181                           ; 4 bytes @ 0x3F
  1182     005F                     	ds	4
  1183     0063                     ___fldiv@sign:
  1184                           
  1185                           ; 1 bytes @ 0x43
  1186     0063                     	ds	1
  1187     0064                     ___fldiv@new_exp:
  1188                           
  1189                           ; 2 bytes @ 0x44
  1190     0064                     	ds	2
  1191     0066                     ___fldiv@grs:
  1192                           
  1193                           ; 4 bytes @ 0x46
  1194     0066                     	ds	4
  1195     006A                     ___fldiv@bexp:
  1196                           
  1197                           ; 1 bytes @ 0x4A
  1198     006A                     	ds	1
  1199     006B                     ___fldiv@aexp:
  1200                           
  1201                           ; 1 bytes @ 0x4B
  1202     006B                     	ds	1
  1203     006C                     _map$1292:
  1204                           
  1205                           ; 4 bytes @ 0x4C
  1206     006C                     	ds	4
  1207                           
  1208                           	psect	maintext
  1209     0DA3                     __pmaintext:	
  1210 ;;
  1211 ;;Main: autosize = 0, tempsize = 3, incstack = 0, save=0
  1212 ;;
  1213 ;; *************** function _main *****************
  1214 ;; Defined at:
  1215 ;;		line 47 in file "C:/Users/Bryan Ortiz/Desktop/Digital2/Lab2D2.X/Lab2D2.c"
  1216 ;; Parameters:    Size  Location     Type
  1217 ;;		None
  1218 ;; Auto vars:     Size  Location     Type
  1219 ;;  contador        3   36[BANK1 ] unsigned char [3]
  1220 ;;  voltaje         3   33[BANK1 ] unsigned char [3]
  1221 ;;  temp            2   41[BANK1 ] unsigned int 
  1222 ;;  adcV            2   39[BANK1 ] unsigned int 
  1223 ;; Return value:  Size  Location     Type
  1224 ;;                  1    wreg      void 
  1225 ;; Registers used:
  1226 ;;		wreg, fsr0l, fsr0h, status,2, status,0, btemp+1, pclath, cstack
  1227 ;; Tracked objects:
  1228 ;;		On entry : B00/0
  1229 ;;		On exit  : 0/0
  1230 ;;		Unchanged: 0/0
  1231 ;; Data sizes:     COMMON   BANK0   BANK1   BANK3   BANK2
  1232 ;;      Params:         0       0       0       0       0
  1233 ;;      Locals:         0       0      10       0       0
  1234 ;;      Temps:          0       0       3       0       0
  1235 ;;      Totals:         0       0      13       0       0
  1236 ;;Total ram usage:       13 bytes
  1237 ;; Hardware stack levels required when called: 4
  1238 ;; This function calls:
  1239 ;;		_Lcd_Clear
  1240 ;;		_Lcd_Set_Cursor
  1241 ;;		_Lcd_Write_Char
  1242 ;;		_Lcd_Write_String
  1243 ;;		_UART_read_char
  1244 ;;		_UART_write_char
  1245 ;;		___fltol
  1246 ;;		___lwdiv
  1247 ;;		___lwmod
  1248 ;;		___xxtofl
  1249 ;;		_adc_read
  1250 ;;		_map
  1251 ;;		_setup
  1252 ;;		_utoa
  1253 ;; This function is called by:
  1254 ;;		Startup code after reset
  1255 ;; This function uses a non-reentrant model
  1256 ;;
  1257                           
  1258     0DA3                     _main:	
  1259                           ;psect for function _main
  1260                           
  1261     0DA3                     l2590:	
  1262                           ;incstack = 0
  1263                           ; Regs used in _main: [wreg-fsr0h+status,2+status,0+btemp+1+pclath+cstack]
  1264                           
  1265                           
  1266                           ;C:/Users/Bryan Ortiz/Desktop/Digital2/Lab2D2.X/Lab2D2.c: 48:     setup();
  1267     0DA3  120A  158A  2196  120A  158A  	fcall	_setup
  1268     0DA8                     l2592:
  1269                           
  1270                           ;C:/Users/Bryan Ortiz/Desktop/Digital2/Lab2D2.X/Lab2D2.c: 50:         unsigned int adcV,
      +                           temp;;C:/Users/Bryan Ortiz/Desktop/Digital2/Lab2D2.X/Lab2D2.c: 52:         adcV = adc_r
      +                          ead();
  1271     0DA8  160A  118A  278A  120A  158A  	fcall	_adc_read
  1272     0DAD  0871               	movf	?_adc_read+1,w
  1273     0DAE  1683               	bsf	3,5	;RP0=1, select bank1
  1274     0DAF  1303               	bcf	3,6	;RP1=0, select bank1
  1275     0DB0  00C8               	movwf	(main@adcV+1)^(0+128)
  1276     0DB1  0870               	movf	?_adc_read,w
  1277     0DB2  00C7               	movwf	main@adcV^(0+128)
  1278     0DB3                     l2594:
  1279                           
  1280                           ;C:/Users/Bryan Ortiz/Desktop/Digital2/Lab2D2.X/Lab2D2.c: 54:         UART_write_char("\
      +                          r49");
  1281     0DB3  30C9               	movlw	(low ((STR_1-__stringbase)| (0+32768)))& (0+255)
  1282     0DB4  1283               	bcf	3,5	;RP0=0, select bank0
  1283     0DB5  1303               	bcf	3,6	;RP1=0, select bank0
  1284     0DB6  00A9               	movwf	UART_write_char@c
  1285     0DB7  3080               	movlw	128
  1286     0DB8  00AA               	movwf	UART_write_char@c+1
  1287     0DB9  120A  158A  2149  120A  158A  	fcall	_UART_write_char
  1288     0DBE                     l2596:
  1289                           
  1290                           ;C:/Users/Bryan Ortiz/Desktop/Digital2/Lab2D2.X/Lab2D2.c: 55:         UART_write_char("\
      +                          r__Presione 1 para leer el potenciometro__");
  1291     0DBE  3001               	movlw	(low ((STR_2-__stringbase)| (0+32768)))& (0+255)
  1292     0DBF  1283               	bcf	3,5	;RP0=0, select bank0
  1293     0DC0  1303               	bcf	3,6	;RP1=0, select bank0
  1294     0DC1  00A9               	movwf	UART_write_char@c
  1295     0DC2  3080               	movlw	128
  1296     0DC3  00AA               	movwf	UART_write_char@c+1
  1297     0DC4  120A  158A  2149  120A  158A  	fcall	_UART_write_char
  1298     0DC9                     l2598:
  1299                           
  1300                           ;C:/Users/Bryan Ortiz/Desktop/Digital2/Lab2D2.X/Lab2D2.c: 56:         UART_write_char("\
      +                          r__Presione 2 para enviar + o -__");
  1301     0DC9  3057               	movlw	(low ((STR_3-__stringbase)| (0+32768)))& (0+255)
  1302     0DCA  1283               	bcf	3,5	;RP0=0, select bank0
  1303     0DCB  1303               	bcf	3,6	;RP1=0, select bank0
  1304     0DCC  00A9               	movwf	UART_write_char@c
  1305     0DCD  3080               	movlw	128
  1306     0DCE  00AA               	movwf	UART_write_char@c+1
  1307     0DCF  120A  158A  2149  120A  158A  	fcall	_UART_write_char
  1308     0DD4                     l126:	
  1309                           ;C:/Users/Bryan Ortiz/Desktop/Digital2/Lab2D2.X/Lab2D2.c: 58:         while(PIR1bits.RCI
      +                          F==0);
  1310                           
  1311     0DD4  1283               	bcf	3,5	;RP0=0, select bank0
  1312     0DD5  1303               	bcf	3,6	;RP1=0, select bank0
  1313     0DD6  1E8C               	btfss	12,5	;volatile
  1314     0DD7  2DD9               	goto	u3341
  1315     0DD8  2DDA               	goto	u3340
  1316     0DD9                     u3341:
  1317     0DD9  2DD4               	goto	l126
  1318     0DDA                     u3340:
  1319     0DDA                     l2600:
  1320                           
  1321                           ;C:/Users/Bryan Ortiz/Desktop/Digital2/Lab2D2.X/Lab2D2.c: 60:         if(UART_read_char(
      +                          )==0b00110001){
  1322     0DDA  160A  118A  276B  120A  158A  	fcall	_UART_read_char
  1323     0DDF  3A31               	xorlw	49
  1324     0DE0  1D03               	skipz
  1325     0DE1  2DE3               	goto	u3351
  1326     0DE2  2DE4               	goto	u3350
  1327     0DE3                     u3351:
  1328     0DE3  2E25               	goto	l2604
  1329     0DE4                     u3350:
  1330     0DE4                     l2602:
  1331                           
  1332                           ;C:/Users/Bryan Ortiz/Desktop/Digital2/Lab2D2.X/Lab2D2.c: 61:             UART_write_cha
      +                          r("\r__Lectura del POT__");
  1333     0DE4  3093               	movlw	(low ((STR_4-__stringbase)| (0+32768)))& (0+255)
  1334     0DE5  1283               	bcf	3,5	;RP0=0, select bank0
  1335     0DE6  1303               	bcf	3,6	;RP1=0, select bank0
  1336     0DE7  00A9               	movwf	UART_write_char@c
  1337     0DE8  3080               	movlw	128
  1338     0DE9  00AA               	movwf	UART_write_char@c+1
  1339     0DEA  120A  158A  2149  120A  158A  	fcall	_UART_write_char
  1340                           
  1341                           ;C:/Users/Bryan Ortiz/Desktop/Digital2/Lab2D2.X/Lab2D2.c: 62:             UART_write_cha
      +                          r("\rNumero actual: ");
  1342     0DEF  30A8               	movlw	(low ((STR_5-__stringbase)| (0+32768)))& (0+255)
  1343     0DF0  1283               	bcf	3,5	;RP0=0, select bank0
  1344     0DF1  1303               	bcf	3,6	;RP1=0, select bank0
  1345     0DF2  00A9               	movwf	UART_write_char@c
  1346     0DF3  3080               	movlw	128
  1347     0DF4  00AA               	movwf	UART_write_char@c+1
  1348     0DF5  120A  158A  2149  120A  158A  	fcall	_UART_write_char
  1349                           
  1350                           ;C:/Users/Bryan Ortiz/Desktop/Digital2/Lab2D2.X/Lab2D2.c: 63:             UART_write_cha
      +                          r(utoa(buffer,adcV,10));
  1351     0DFA  1683               	bsf	3,5	;RP0=1, select bank1
  1352     0DFB  1303               	bcf	3,6	;RP1=0, select bank1
  1353     0DFC  0848               	movf	(main@adcV+1)^(0+128),w
  1354     0DFD  1283               	bcf	3,5	;RP0=0, select bank0
  1355     0DFE  1303               	bcf	3,6	;RP1=0, select bank0
  1356     0DFF  00A1               	movwf	utoa@val+1
  1357     0E00  1683               	bsf	3,5	;RP0=1, select bank1
  1358     0E01  1303               	bcf	3,6	;RP1=0, select bank1
  1359     0E02  0847               	movf	main@adcV^(0+128),w
  1360     0E03  1283               	bcf	3,5	;RP0=0, select bank0
  1361     0E04  1303               	bcf	3,6	;RP1=0, select bank0
  1362     0E05  00A0               	movwf	utoa@val
  1363     0E06  300A               	movlw	10
  1364     0E07  00A2               	movwf	utoa@base
  1365     0E08  3000               	movlw	0
  1366     0E09  00A3               	movwf	utoa@base+1
  1367     0E0A  30CD               	movlw	(low (_buffer| 0))& (0+255)
  1368     0E0B  120A  158A  2290  120A  158A  	fcall	_utoa
  1369     0E10  1283               	bcf	3,5	;RP0=0, select bank0
  1370     0E11  1303               	bcf	3,6	;RP1=0, select bank0
  1371     0E12  00A9               	movwf	UART_write_char@c
  1372     0E13  3000               	movlw	0
  1373     0E14  00AA               	movwf	UART_write_char@c+1
  1374     0E15  120A  158A  2149  120A  158A  	fcall	_UART_write_char
  1375                           
  1376                           ;C:/Users/Bryan Ortiz/Desktop/Digital2/Lab2D2.X/Lab2D2.c: 64:             UART_write_cha
      +                          r("\r");
  1377     0E1A  30CD               	movlw	(low ((STR_6-__stringbase)| (0+32768)))& (0+255)
  1378     0E1B  1283               	bcf	3,5	;RP0=0, select bank0
  1379     0E1C  1303               	bcf	3,6	;RP1=0, select bank0
  1380     0E1D  00A9               	movwf	UART_write_char@c
  1381     0E1E  3080               	movlw	128
  1382     0E1F  00AA               	movwf	UART_write_char@c+1
  1383     0E20  120A  158A  2149  120A  158A  	fcall	_UART_write_char
  1384     0E25                     l2604:
  1385                           
  1386                           ;C:/Users/Bryan Ortiz/Desktop/Digital2/Lab2D2.X/Lab2D2.c: 67:         if(UART_read_char(
      +                          )==0b00110010){
  1387     0E25  160A  118A  276B  120A  158A  	fcall	_UART_read_char
  1388     0E2A  3A32               	xorlw	50
  1389     0E2B  1D03               	skipz
  1390     0E2C  2E2E               	goto	u3361
  1391     0E2D  2E2F               	goto	u3360
  1392     0E2E                     u3361:
  1393     0E2E  2EA1               	goto	l2624
  1394     0E2F                     u3360:
  1395     0E2F                     l2606:
  1396                           
  1397                           ;C:/Users/Bryan Ortiz/Desktop/Digital2/Lab2D2.X/Lab2D2.c: 68:             UART_write_cha
      +                          r("\r Escriba + o - para modificar el contador");
  1398     0E2F  302C               	movlw	(low ((STR_7-__stringbase)| (0+32768)))& (0+255)
  1399     0E30  1283               	bcf	3,5	;RP0=0, select bank0
  1400     0E31  1303               	bcf	3,6	;RP1=0, select bank0
  1401     0E32  00A9               	movwf	UART_write_char@c
  1402     0E33  3080               	movlw	128
  1403     0E34  00AA               	movwf	UART_write_char@c+1
  1404     0E35  120A  158A  2149  120A  158A  	fcall	_UART_write_char
  1405     0E3A                     l131:	
  1406                           ;C:/Users/Bryan Ortiz/Desktop/Digital2/Lab2D2.X/Lab2D2.c: 69:             while(PIR1bits
      +                          .RCIF==0);
  1407                           
  1408     0E3A  1283               	bcf	3,5	;RP0=0, select bank0
  1409     0E3B  1303               	bcf	3,6	;RP1=0, select bank0
  1410     0E3C  1E8C               	btfss	12,5	;volatile
  1411     0E3D  2E3F               	goto	u3371
  1412     0E3E  2E40               	goto	u3370
  1413     0E3F                     u3371:
  1414     0E3F  2E3A               	goto	l131
  1415     0E40                     u3370:
  1416     0E40                     l2608:
  1417                           
  1418                           ;C:/Users/Bryan Ortiz/Desktop/Digital2/Lab2D2.X/Lab2D2.c: 70:             if(UART_read_c
      +                          har()==0b00110001){
  1419     0E40  160A  118A  276B  120A  158A  	fcall	_UART_read_char
  1420     0E45  3A31               	xorlw	49
  1421     0E46  1D03               	skipz
  1422     0E47  2E49               	goto	u3381
  1423     0E48  2E4A               	goto	u3380
  1424     0E49                     u3381:
  1425     0E49  2E52               	goto	l2612
  1426     0E4A                     u3380:
  1427     0E4A                     l2610:
  1428                           
  1429                           ;C:/Users/Bryan Ortiz/Desktop/Digital2/Lab2D2.X/Lab2D2.c: 71:                 cpu++;
  1430     0E4A  3001               	movlw	1
  1431     0E4B  1683               	bsf	3,5	;RP0=1, select bank1
  1432     0E4C  1303               	bcf	3,6	;RP1=0, select bank1
  1433     0E4D  07CB               	addwf	_cpu^(0+128),f
  1434     0E4E  1803               	skipnc
  1435     0E4F  0ACC               	incf	(_cpu+1)^(0+128),f
  1436     0E50  3000               	movlw	0
  1437     0E51  07CC               	addwf	(_cpu+1)^(0+128),f
  1438     0E52                     l2612:
  1439                           
  1440                           ;C:/Users/Bryan Ortiz/Desktop/Digital2/Lab2D2.X/Lab2D2.c: 73:             if(UART_read_c
      +                          har()==0b00110010){
  1441     0E52  160A  118A  276B  120A  158A  	fcall	_UART_read_char
  1442     0E57  3A32               	xorlw	50
  1443     0E58  1D03               	skipz
  1444     0E59  2E5B               	goto	u3391
  1445     0E5A  2E5C               	goto	u3390
  1446     0E5B                     u3391:
  1447     0E5B  2E64               	goto	l2616
  1448     0E5C                     u3390:
  1449     0E5C                     l2614:
  1450                           
  1451                           ;C:/Users/Bryan Ortiz/Desktop/Digital2/Lab2D2.X/Lab2D2.c: 74:                 cpu--;
  1452     0E5C  3001               	movlw	1
  1453     0E5D  1683               	bsf	3,5	;RP0=1, select bank1
  1454     0E5E  1303               	bcf	3,6	;RP1=0, select bank1
  1455     0E5F  02CB               	subwf	_cpu^(0+128),f
  1456     0E60  3000               	movlw	0
  1457     0E61  1C03               	skipc
  1458     0E62  03CC               	decf	(_cpu+1)^(0+128),f
  1459     0E63  02CC               	subwf	(_cpu+1)^(0+128),f
  1460     0E64                     l2616:
  1461                           
  1462                           ;C:/Users/Bryan Ortiz/Desktop/Digital2/Lab2D2.X/Lab2D2.c: 76:             UART_write_cha
      +                          r("\rNumero actual contador: ");
  1463     0E64  3079               	movlw	(low ((STR_8-__stringbase)| (0+32768)))& (0+255)
  1464     0E65  1283               	bcf	3,5	;RP0=0, select bank0
  1465     0E66  1303               	bcf	3,6	;RP1=0, select bank0
  1466     0E67  00A9               	movwf	UART_write_char@c
  1467     0E68  3080               	movlw	128
  1468     0E69  00AA               	movwf	UART_write_char@c+1
  1469     0E6A  120A  158A  2149  120A  158A  	fcall	_UART_write_char
  1470     0E6F                     l2618:
  1471                           
  1472                           ;C:/Users/Bryan Ortiz/Desktop/Digital2/Lab2D2.X/Lab2D2.c: 77:             UART_write_cha
      +                          r(utoa(buffer,cpu,10));
  1473     0E6F  1683               	bsf	3,5	;RP0=1, select bank1
  1474     0E70  1303               	bcf	3,6	;RP1=0, select bank1
  1475     0E71  084C               	movf	(_cpu+1)^(0+128),w
  1476     0E72  1283               	bcf	3,5	;RP0=0, select bank0
  1477     0E73  1303               	bcf	3,6	;RP1=0, select bank0
  1478     0E74  00A1               	movwf	utoa@val+1
  1479     0E75  1683               	bsf	3,5	;RP0=1, select bank1
  1480     0E76  1303               	bcf	3,6	;RP1=0, select bank1
  1481     0E77  084B               	movf	_cpu^(0+128),w
  1482     0E78  1283               	bcf	3,5	;RP0=0, select bank0
  1483     0E79  1303               	bcf	3,6	;RP1=0, select bank0
  1484     0E7A  00A0               	movwf	utoa@val
  1485     0E7B  300A               	movlw	10
  1486     0E7C  00A2               	movwf	utoa@base
  1487     0E7D  3000               	movlw	0
  1488     0E7E  00A3               	movwf	utoa@base+1
  1489     0E7F  30CD               	movlw	(low (_buffer| 0))& (0+255)
  1490     0E80  120A  158A  2290  120A  158A  	fcall	_utoa
  1491     0E85  1283               	bcf	3,5	;RP0=0, select bank0
  1492     0E86  1303               	bcf	3,6	;RP1=0, select bank0
  1493     0E87  00A9               	movwf	UART_write_char@c
  1494     0E88  3000               	movlw	0
  1495     0E89  00AA               	movwf	UART_write_char@c+1
  1496     0E8A  120A  158A  2149  120A  158A  	fcall	_UART_write_char
  1497     0E8F                     l2620:
  1498                           
  1499                           ;C:/Users/Bryan Ortiz/Desktop/Digital2/Lab2D2.X/Lab2D2.c: 78:             UART_write_cha
      +                          r ("\r");
  1500     0E8F  30CD               	movlw	(low ((STR_6-__stringbase)| (0+32768)))& (0+255)
  1501     0E90  1283               	bcf	3,5	;RP0=0, select bank0
  1502     0E91  1303               	bcf	3,6	;RP1=0, select bank0
  1503     0E92  00A9               	movwf	UART_write_char@c
  1504     0E93  3080               	movlw	128
  1505     0E94  00AA               	movwf	UART_write_char@c+1
  1506     0E95  120A  158A  2149  120A  158A  	fcall	_UART_write_char
  1507     0E9A                     l2622:
  1508                           
  1509                           ;C:/Users/Bryan Ortiz/Desktop/Digital2/Lab2D2.X/Lab2D2.c: 79:             PIR1bits.RCIF 
      +                          = 0;
  1510     0E9A  1283               	bcf	3,5	;RP0=0, select bank0
  1511     0E9B  1303               	bcf	3,6	;RP1=0, select bank0
  1512     0E9C  128C               	bcf	12,5	;volatile
  1513     0E9D                     l136:	
  1514                           ;C:/Users/Bryan Ortiz/Desktop/Digital2/Lab2D2.X/Lab2D2.c: 80:             while(PIR1bits
      +                          .RCIF==0);
  1515                           
  1516     0E9D  1E8C               	btfss	12,5	;volatile
  1517     0E9E  2EA0               	goto	u3401
  1518     0E9F  2EA1               	goto	u3400
  1519     0EA0                     u3401:
  1520     0EA0  2E9D               	goto	l136
  1521     0EA1                     u3400:
  1522     0EA1                     l2624:
  1523                           
  1524                           ;C:/Users/Bryan Ortiz/Desktop/Digital2/Lab2D2.X/Lab2D2.c: 84:         temp = map(adcV,0,
      +                          255,0,500);
  1525     0EA1  3043               	movlw	67
  1526     0EA2  1683               	bsf	3,5	;RP0=1, select bank1
  1527     0EA3  1303               	bcf	3,6	;RP1=0, select bank1
  1528     0EA4  00B3               	movwf	(map@toHigh+3)^(0+128)
  1529     0EA5  30FA               	movlw	250
  1530     0EA6  00B2               	movwf	(map@toHigh+2)^(0+128)
  1531     0EA7  3000               	movlw	0
  1532     0EA8  00B1               	movwf	(map@toHigh+1)^(0+128)
  1533     0EA9  3000               	movlw	0
  1534     0EAA  00B0               	movwf	map@toHigh^(0+128)
  1535     0EAB  3000               	movlw	0
  1536     0EAC  00AF               	movwf	(map@toLow+3)^(0+128)
  1537     0EAD  3000               	movlw	0
  1538     0EAE  00AE               	movwf	(map@toLow+2)^(0+128)
  1539     0EAF  3000               	movlw	0
  1540     0EB0  00AD               	movwf	(map@toLow+1)^(0+128)
  1541     0EB1  3000               	movlw	0
  1542     0EB2  00AC               	movwf	map@toLow^(0+128)
  1543     0EB3  3043               	movlw	67
  1544     0EB4  00AB               	movwf	(map@fromHigh+3)^(0+128)
  1545     0EB5  307F               	movlw	127
  1546     0EB6  00AA               	movwf	(map@fromHigh+2)^(0+128)
  1547     0EB7  3000               	movlw	0
  1548     0EB8  00A9               	movwf	(map@fromHigh+1)^(0+128)
  1549     0EB9  3000               	movlw	0
  1550     0EBA  00A8               	movwf	map@fromHigh^(0+128)
  1551     0EBB  3000               	movlw	0
  1552     0EBC  00A7               	movwf	(map@fromLow+3)^(0+128)
  1553     0EBD  3000               	movlw	0
  1554     0EBE  00A6               	movwf	(map@fromLow+2)^(0+128)
  1555     0EBF  3000               	movlw	0
  1556     0EC0  00A5               	movwf	(map@fromLow+1)^(0+128)
  1557     0EC1  3000               	movlw	0
  1558     0EC2  00A4               	movwf	map@fromLow^(0+128)
  1559     0EC3  0847               	movf	main@adcV^(0+128),w
  1560     0EC4  00F0               	movwf	___xxtofl@val
  1561     0EC5  0848               	movf	(main@adcV+1)^(0+128),w
  1562     0EC6  00F1               	movwf	___xxtofl@val+1
  1563     0EC7  01F2               	clrf	___xxtofl@val+2
  1564     0EC8  01F3               	clrf	___xxtofl@val+3
  1565     0EC9  3000               	movlw	0
  1566     0ECA  120A  158A  22FF  120A  158A  	fcall	___xxtofl
  1567     0ECF  0873               	movf	?___xxtofl+3,w
  1568     0ED0  1683               	bsf	3,5	;RP0=1, select bank1
  1569     0ED1  1303               	bcf	3,6	;RP1=0, select bank1
  1570     0ED2  00A3               	movwf	(map@value+3)^(0+128)
  1571     0ED3  0872               	movf	?___xxtofl+2,w
  1572     0ED4  00A2               	movwf	(map@value+2)^(0+128)
  1573     0ED5  0871               	movf	?___xxtofl+1,w
  1574     0ED6  00A1               	movwf	(map@value+1)^(0+128)
  1575     0ED7  0870               	movf	?___xxtofl,w
  1576     0ED8  00A0               	movwf	map@value^(0+128)
  1577     0ED9  120A  158A  248A  120A  158A  	fcall	_map
  1578     0EDE  1683               	bsf	3,5	;RP0=1, select bank1
  1579     0EDF  1303               	bcf	3,6	;RP1=0, select bank1
  1580     0EE0  0823               	movf	(?_map+3)^(0+128),w
  1581     0EE1  00B7               	movwf	(___fltol@f1+3)^(0+128)
  1582     0EE2  0822               	movf	(?_map+2)^(0+128),w
  1583     0EE3  00B6               	movwf	(___fltol@f1+2)^(0+128)
  1584     0EE4  0821               	movf	(?_map+1)^(0+128),w
  1585     0EE5  00B5               	movwf	(___fltol@f1+1)^(0+128)
  1586     0EE6  0820               	movf	?_map^(0+128),w
  1587     0EE7  00B4               	movwf	___fltol@f1^(0+128)
  1588     0EE8  120A  118A  2003  120A  158A  	fcall	___fltol
  1589     0EED  1683               	bsf	3,5	;RP0=1, select bank1
  1590     0EEE  1303               	bcf	3,6	;RP1=0, select bank1
  1591     0EEF  0835               	movf	(?___fltol+1)^(0+128),w
  1592     0EF0  00CA               	movwf	(main@temp+1)^(0+128)
  1593     0EF1  0834               	movf	?___fltol^(0+128),w
  1594     0EF2  00C9               	movwf	main@temp^(0+128)
  1595     0EF3                     l2626:
  1596                           
  1597                           ;C:/Users/Bryan Ortiz/Desktop/Digital2/Lab2D2.X/Lab2D2.c: 85:         char voltaje[3];;C
      +                          :/Users/Bryan Ortiz/Desktop/Digital2/Lab2D2.X/Lab2D2.c: 86:         voltaje[0]=temp/100+
      +                          48;
  1598     0EF3  3064               	movlw	100
  1599     0EF4  00F0               	movwf	___lwdiv@divisor
  1600     0EF5  3000               	movlw	0
  1601     0EF6  00F1               	movwf	___lwdiv@divisor+1
  1602     0EF7  084A               	movf	(main@temp+1)^(0+128),w
  1603     0EF8  00F3               	movwf	___lwdiv@dividend+1
  1604     0EF9  0849               	movf	main@temp^(0+128),w
  1605     0EFA  00F2               	movwf	___lwdiv@dividend
  1606     0EFB  120A  158A  21FF  120A  158A  	fcall	___lwdiv
  1607     0F00  0870               	movf	?___lwdiv,w
  1608     0F01  3E30               	addlw	48
  1609     0F02  1683               	bsf	3,5	;RP0=1, select bank1
  1610     0F03  1303               	bcf	3,6	;RP1=0, select bank1
  1611     0F04  00C1               	movwf	main@voltaje^(0+128)
  1612     0F05                     l2628:
  1613                           
  1614                           ;C:/Users/Bryan Ortiz/Desktop/Digital2/Lab2D2.X/Lab2D2.c: 87:         voltaje[1]=(temp/1
      +                          0)%10+48;
  1615     0F05  300A               	movlw	10
  1616     0F06  00F8               	movwf	___lwmod@divisor
  1617     0F07  3000               	movlw	0
  1618     0F08  00F9               	movwf	___lwmod@divisor+1
  1619     0F09  300A               	movlw	10
  1620     0F0A  00F0               	movwf	___lwdiv@divisor
  1621     0F0B  3000               	movlw	0
  1622     0F0C  00F1               	movwf	___lwdiv@divisor+1
  1623     0F0D  084A               	movf	(main@temp+1)^(0+128),w
  1624     0F0E  00F3               	movwf	___lwdiv@dividend+1
  1625     0F0F  0849               	movf	main@temp^(0+128),w
  1626     0F10  00F2               	movwf	___lwdiv@dividend
  1627     0F11  120A  158A  21FF  120A  158A  	fcall	___lwdiv
  1628     0F16  0871               	movf	?___lwdiv+1,w
  1629     0F17  00FB               	movwf	___lwmod@dividend+1
  1630     0F18  0870               	movf	?___lwdiv,w
  1631     0F19  00FA               	movwf	___lwmod@dividend
  1632     0F1A  120A  158A  21C5  120A  158A  	fcall	___lwmod
  1633     0F1F  0878               	movf	?___lwmod,w
  1634     0F20  3E30               	addlw	48
  1635     0F21  1683               	bsf	3,5	;RP0=1, select bank1
  1636     0F22  1303               	bcf	3,6	;RP1=0, select bank1
  1637     0F23  00C2               	movwf	(main@voltaje^(0+128)+1)
  1638     0F24                     l2630:
  1639                           
  1640                           ;C:/Users/Bryan Ortiz/Desktop/Digital2/Lab2D2.X/Lab2D2.c: 88:         voltaje[2]=temp%10
      +                          +48;
  1641     0F24  300A               	movlw	10
  1642     0F25  00F8               	movwf	___lwmod@divisor
  1643     0F26  3000               	movlw	0
  1644     0F27  00F9               	movwf	___lwmod@divisor+1
  1645     0F28  084A               	movf	(main@temp+1)^(0+128),w
  1646     0F29  00FB               	movwf	___lwmod@dividend+1
  1647     0F2A  0849               	movf	main@temp^(0+128),w
  1648     0F2B  00FA               	movwf	___lwmod@dividend
  1649     0F2C  120A  158A  21C5  120A  158A  	fcall	___lwmod
  1650     0F31  0878               	movf	?___lwmod,w
  1651     0F32  3E30               	addlw	48
  1652     0F33  1683               	bsf	3,5	;RP0=1, select bank1
  1653     0F34  1303               	bcf	3,6	;RP1=0, select bank1
  1654     0F35  00C3               	movwf	(main@voltaje^(0+128)+2)
  1655     0F36                     l2632:
  1656                           
  1657                           ;C:/Users/Bryan Ortiz/Desktop/Digital2/Lab2D2.X/Lab2D2.c: 89:         Lcd_Clear();
  1658     0F36  160A  118A  277D  120A  158A  	fcall	_Lcd_Clear
  1659     0F3B                     l2634:
  1660                           
  1661                           ;C:/Users/Bryan Ortiz/Desktop/Digital2/Lab2D2.X/Lab2D2.c: 90:         Lcd_Set_Cursor(1,1
      +                          );
  1662     0F3B  01F4               	clrf	Lcd_Set_Cursor@b
  1663     0F3C  0AF4               	incf	Lcd_Set_Cursor@b,f
  1664     0F3D  3001               	movlw	1
  1665     0F3E  120A  158A  20E0  120A  158A  	fcall	_Lcd_Set_Cursor
  1666     0F43                     l2636:
  1667                           
  1668                           ;C:/Users/Bryan Ortiz/Desktop/Digital2/Lab2D2.X/Lab2D2.c: 91:         Lcd_Write_String("
      +                          Pot1:");
  1669     0F43  30C3               	movlw	(low ((STR_10-__stringbase)| (0+32768)))& (0+255)
  1670     0F44  120A  158A  2124  120A  158A  	fcall	_Lcd_Write_String
  1671     0F49                     l2638:
  1672                           
  1673                           ;C:/Users/Bryan Ortiz/Desktop/Digital2/Lab2D2.X/Lab2D2.c: 92:         Lcd_Set_Cursor(2,1
      +                          );
  1674     0F49  01F4               	clrf	Lcd_Set_Cursor@b
  1675     0F4A  0AF4               	incf	Lcd_Set_Cursor@b,f
  1676     0F4B  3002               	movlw	2
  1677     0F4C  120A  158A  20E0  120A  158A  	fcall	_Lcd_Set_Cursor
  1678     0F51                     l2640:
  1679                           
  1680                           ;C:/Users/Bryan Ortiz/Desktop/Digital2/Lab2D2.X/Lab2D2.c: 93:         Lcd_Write_Char(vol
      +                          taje[0]);
  1681     0F51  1683               	bsf	3,5	;RP0=1, select bank1
  1682     0F52  1303               	bcf	3,6	;RP1=0, select bank1
  1683     0F53  0841               	movf	main@voltaje^(0+128),w
  1684     0F54  160A  118A  279E  120A  158A  	fcall	_Lcd_Write_Char
  1685     0F59                     l2642:
  1686                           
  1687                           ;C:/Users/Bryan Ortiz/Desktop/Digital2/Lab2D2.X/Lab2D2.c: 94:         Lcd_Write_Char('.'
      +                          );
  1688     0F59  302E               	movlw	46
  1689     0F5A  160A  118A  279E  120A  158A  	fcall	_Lcd_Write_Char
  1690     0F5F                     l2644:
  1691                           
  1692                           ;C:/Users/Bryan Ortiz/Desktop/Digital2/Lab2D2.X/Lab2D2.c: 95:         Lcd_Write_Char(vol
      +                          taje[1]);
  1693     0F5F  1683               	bsf	3,5	;RP0=1, select bank1
  1694     0F60  1303               	bcf	3,6	;RP1=0, select bank1
  1695     0F61  0842               	movf	(main@voltaje^(0+128)+1),w
  1696     0F62  160A  118A  279E  120A  158A  	fcall	_Lcd_Write_Char
  1697     0F67                     l2646:
  1698                           
  1699                           ;C:/Users/Bryan Ortiz/Desktop/Digital2/Lab2D2.X/Lab2D2.c: 96:         Lcd_Write_Char(vol
      +                          taje[2]);
  1700     0F67  1683               	bsf	3,5	;RP0=1, select bank1
  1701     0F68  1303               	bcf	3,6	;RP1=0, select bank1
  1702     0F69  0843               	movf	(main@voltaje^(0+128)+2),w
  1703     0F6A  160A  118A  279E  120A  158A  	fcall	_Lcd_Write_Char
  1704     0F6F                     l2648:
  1705                           
  1706                           ;C:/Users/Bryan Ortiz/Desktop/Digital2/Lab2D2.X/Lab2D2.c: 97:         Lcd_Write_Char('V'
      +                          );
  1707     0F6F  3056               	movlw	86
  1708     0F70  160A  118A  279E  120A  158A  	fcall	_Lcd_Write_Char
  1709     0F75                     l2650:
  1710                           
  1711                           ;C:/Users/Bryan Ortiz/Desktop/Digital2/Lab2D2.X/Lab2D2.c: 100:         char contador[3];
      +                          ;C:/Users/Bryan Ortiz/Desktop/Digital2/Lab2D2.X/Lab2D2.c: 101:         contador[0]=cpu/1
      +                          00+48;
  1712     0F75  3064               	movlw	100
  1713     0F76  00F0               	movwf	___lwdiv@divisor
  1714     0F77  3000               	movlw	0
  1715     0F78  00F1               	movwf	___lwdiv@divisor+1
  1716     0F79  1683               	bsf	3,5	;RP0=1, select bank1
  1717     0F7A  1303               	bcf	3,6	;RP1=0, select bank1
  1718     0F7B  084C               	movf	(_cpu+1)^(0+128),w
  1719     0F7C  00F3               	movwf	___lwdiv@dividend+1
  1720     0F7D  084B               	movf	_cpu^(0+128),w
  1721     0F7E  00F2               	movwf	___lwdiv@dividend
  1722     0F7F  120A  158A  21FF  120A  158A  	fcall	___lwdiv
  1723     0F84  0870               	movf	?___lwdiv,w
  1724     0F85  3E30               	addlw	48
  1725     0F86  1683               	bsf	3,5	;RP0=1, select bank1
  1726     0F87  1303               	bcf	3,6	;RP1=0, select bank1
  1727     0F88  00C4               	movwf	main@contador^(0+128)
  1728     0F89                     l2652:
  1729                           
  1730                           ;C:/Users/Bryan Ortiz/Desktop/Digital2/Lab2D2.X/Lab2D2.c: 102:         contador[1]=(cpu/
      +                          10)%10+48;
  1731     0F89  300A               	movlw	10
  1732     0F8A  00F8               	movwf	___lwmod@divisor
  1733     0F8B  3000               	movlw	0
  1734     0F8C  00F9               	movwf	___lwmod@divisor+1
  1735     0F8D  300A               	movlw	10
  1736     0F8E  00F0               	movwf	___lwdiv@divisor
  1737     0F8F  3000               	movlw	0
  1738     0F90  00F1               	movwf	___lwdiv@divisor+1
  1739     0F91  084C               	movf	(_cpu+1)^(0+128),w
  1740     0F92  00F3               	movwf	___lwdiv@dividend+1
  1741     0F93  084B               	movf	_cpu^(0+128),w
  1742     0F94  00F2               	movwf	___lwdiv@dividend
  1743     0F95  120A  158A  21FF  120A  158A  	fcall	___lwdiv
  1744     0F9A  0871               	movf	?___lwdiv+1,w
  1745     0F9B  00FB               	movwf	___lwmod@dividend+1
  1746     0F9C  0870               	movf	?___lwdiv,w
  1747     0F9D  00FA               	movwf	___lwmod@dividend
  1748     0F9E  120A  158A  21C5  120A  158A  	fcall	___lwmod
  1749     0FA3  0878               	movf	?___lwmod,w
  1750     0FA4  3E30               	addlw	48
  1751     0FA5  1683               	bsf	3,5	;RP0=1, select bank1
  1752     0FA6  1303               	bcf	3,6	;RP1=0, select bank1
  1753     0FA7  00C5               	movwf	(main@contador^(0+128)+1)
  1754     0FA8                     l2654:
  1755                           
  1756                           ;C:/Users/Bryan Ortiz/Desktop/Digital2/Lab2D2.X/Lab2D2.c: 103:         contador[2]=cpu%1
      +                          0+48;
  1757     0FA8  300A               	movlw	10
  1758     0FA9  00F8               	movwf	___lwmod@divisor
  1759     0FAA  3000               	movlw	0
  1760     0FAB  00F9               	movwf	___lwmod@divisor+1
  1761     0FAC  084C               	movf	(_cpu+1)^(0+128),w
  1762     0FAD  00FB               	movwf	___lwmod@dividend+1
  1763     0FAE  084B               	movf	_cpu^(0+128),w
  1764     0FAF  00FA               	movwf	___lwmod@dividend
  1765     0FB0  120A  158A  21C5  120A  158A  	fcall	___lwmod
  1766     0FB5  0878               	movf	?___lwmod,w
  1767     0FB6  3E30               	addlw	48
  1768     0FB7  1683               	bsf	3,5	;RP0=1, select bank1
  1769     0FB8  1303               	bcf	3,6	;RP1=0, select bank1
  1770     0FB9  00C6               	movwf	(main@contador^(0+128)+2)
  1771     0FBA                     l2656:
  1772                           
  1773                           ;C:/Users/Bryan Ortiz/Desktop/Digital2/Lab2D2.X/Lab2D2.c: 104:         Lcd_Set_Cursor(1,
      +                          8);
  1774     0FBA  3008               	movlw	8
  1775     0FBB  00F4               	movwf	Lcd_Set_Cursor@b
  1776     0FBC  3001               	movlw	1
  1777     0FBD  120A  158A  20E0  120A  158A  	fcall	_Lcd_Set_Cursor
  1778     0FC2                     l2658:
  1779                           
  1780                           ;C:/Users/Bryan Ortiz/Desktop/Digital2/Lab2D2.X/Lab2D2.c: 105:         Lcd_Write_String(
      +                          "Contador:");
  1781     0FC2  30B9               	movlw	(low ((STR_11-__stringbase)| (0+32768)))& (0+255)
  1782     0FC3  120A  158A  2124  120A  158A  	fcall	_Lcd_Write_String
  1783     0FC8                     l2660:
  1784                           
  1785                           ;C:/Users/Bryan Ortiz/Desktop/Digital2/Lab2D2.X/Lab2D2.c: 106:         Lcd_Set_Cursor(2,
      +                          8);
  1786     0FC8  3008               	movlw	8
  1787     0FC9  00F4               	movwf	Lcd_Set_Cursor@b
  1788     0FCA  3002               	movlw	2
  1789     0FCB  120A  158A  20E0  120A  158A  	fcall	_Lcd_Set_Cursor
  1790     0FD0                     l2662:
  1791                           
  1792                           ;C:/Users/Bryan Ortiz/Desktop/Digital2/Lab2D2.X/Lab2D2.c: 107:         Lcd_Write_Char(co
      +                          ntador[0]);
  1793     0FD0  1683               	bsf	3,5	;RP0=1, select bank1
  1794     0FD1  1303               	bcf	3,6	;RP1=0, select bank1
  1795     0FD2  0844               	movf	main@contador^(0+128),w
  1796     0FD3  160A  118A  279E  120A  158A  	fcall	_Lcd_Write_Char
  1797     0FD8                     l2664:
  1798                           
  1799                           ;C:/Users/Bryan Ortiz/Desktop/Digital2/Lab2D2.X/Lab2D2.c: 109:         Lcd_Write_Char(co
      +                          ntador[1]);
  1800     0FD8  1683               	bsf	3,5	;RP0=1, select bank1
  1801     0FD9  1303               	bcf	3,6	;RP1=0, select bank1
  1802     0FDA  0845               	movf	(main@contador^(0+128)+1),w
  1803     0FDB  160A  118A  279E  120A  158A  	fcall	_Lcd_Write_Char
  1804     0FE0                     l2666:
  1805                           
  1806                           ;C:/Users/Bryan Ortiz/Desktop/Digital2/Lab2D2.X/Lab2D2.c: 110:         Lcd_Write_Char(co
      +                          ntador[2]);
  1807     0FE0  1683               	bsf	3,5	;RP0=1, select bank1
  1808     0FE1  1303               	bcf	3,6	;RP1=0, select bank1
  1809     0FE2  0846               	movf	(main@contador^(0+128)+2),w
  1810     0FE3  160A  118A  279E  120A  158A  	fcall	_Lcd_Write_Char
  1811     0FE8                     l2668:
  1812                           
  1813                           ;C:/Users/Bryan Ortiz/Desktop/Digital2/Lab2D2.X/Lab2D2.c: 111:         Lcd_Write_Char('V
      +                          ');
  1814     0FE8  3056               	movlw	86
  1815     0FE9  160A  118A  279E  120A  158A  	fcall	_Lcd_Write_Char
  1816     0FEE                     l2670:
  1817                           
  1818                           ;C:/Users/Bryan Ortiz/Desktop/Digital2/Lab2D2.X/Lab2D2.c: 114:         _delay((unsigned 
      +                          long)((500)*(8000000/4000.0)));
  1819     0FEE  3006               	movlw	6
  1820     0FEF  1683               	bsf	3,5	;RP0=1, select bank1
  1821     0FF0  1303               	bcf	3,6	;RP1=0, select bank1
  1822     0FF1  00C0               	movwf	(??_main^(0+128)+2)
  1823     0FF2  3013               	movlw	19
  1824     0FF3  00BF               	movwf	(??_main^(0+128)+1)
  1825     0FF4  30AD               	movlw	173
  1826     0FF5  00BE               	movwf	??_main^(0+128)
  1827     0FF6                     u3417:
  1828     0FF6  0BBE               	decfsz	??_main^(0+128),f
  1829     0FF7  2FF6               	goto	u3417
  1830     0FF8  0BBF               	decfsz	(??_main^(0+128)+1),f
  1831     0FF9  2FF6               	goto	u3417
  1832     0FFA  0BC0               	decfsz	(??_main^(0+128)+2),f
  1833     0FFB  2FF6               	goto	u3417
  1834     0FFC  2DA8               	goto	l2592
  1835     0FFD  120A  118A  2800   	ljmp	start
  1836     1000                     __end_of_main:
  1837                           
  1838                           	psect	text1
  1839     0A90                     __ptext1:	
  1840 ;; *************** function _utoa *****************
  1841 ;; Defined at:
  1842 ;;		line 17 in file "C:\Program Files\Microchip\xc8\v2.40\pic\sources\c90\common\itoa.c"
  1843 ;; Parameters:    Size  Location     Type
  1844 ;;  buf             1    wreg     PTR unsigned char 
  1845 ;;		 -> buffer(17), 
  1846 ;;  val             2    0[BANK0 ] unsigned int 
  1847 ;;  base            2    2[BANK0 ] int 
  1848 ;; Auto vars:     Size  Location     Type
  1849 ;;  buf             1    8[BANK0 ] PTR unsigned char 
  1850 ;;		 -> buffer(17), 
  1851 ;;  v               2    5[BANK0 ] unsigned int 
  1852 ;;  c               1    7[BANK0 ] unsigned char 
  1853 ;; Return value:  Size  Location     Type
  1854 ;;                  1    wreg      PTR unsigned char 
  1855 ;; Registers used:
  1856 ;;		wreg, fsr0l, fsr0h, status,2, status,0, pclath, cstack
  1857 ;; Tracked objects:
  1858 ;;		On entry : 0/0
  1859 ;;		On exit  : 0/0
  1860 ;;		Unchanged: 0/0
  1861 ;; Data sizes:     COMMON   BANK0   BANK1   BANK3   BANK2
  1862 ;;      Params:         0       4       0       0       0
  1863 ;;      Locals:         0       4       0       0       0
  1864 ;;      Temps:          0       1       0       0       0
  1865 ;;      Totals:         0       9       0       0       0
  1866 ;;Total ram usage:        9 bytes
  1867 ;; Hardware stack levels used: 1
  1868 ;; Hardware stack levels required when called: 1
  1869 ;; This function calls:
  1870 ;;		___lwdiv
  1871 ;;		___lwmod
  1872 ;; This function is called by:
  1873 ;;		_main
  1874 ;; This function uses a non-reentrant model
  1875 ;;
  1876                           
  1877     0A90                     _utoa:	
  1878                           ;psect for function _utoa
  1879                           
  1880                           
  1881                           ;incstack = 0
  1882                           ; Regs used in _utoa: [wreg-fsr0h+status,2+status,0+pclath+cstack]
  1883                           ;utoa@buf stored from wreg
  1884     0A90  1283               	bcf	3,5	;RP0=0, select bank0
  1885     0A91  1303               	bcf	3,6	;RP1=0, select bank0
  1886     0A92  00A8               	movwf	utoa@buf
  1887     0A93                     l2454:
  1888     0A93  0821               	movf	utoa@val+1,w
  1889     0A94  00A6               	movwf	utoa@v+1
  1890     0A95  0820               	movf	utoa@val,w
  1891     0A96  00A5               	movwf	utoa@v
  1892     0A97                     l2456:
  1893     0A97  0823               	movf	utoa@base+1,w
  1894     0A98  00F1               	movwf	___lwdiv@divisor+1
  1895     0A99  0822               	movf	utoa@base,w
  1896     0A9A  00F0               	movwf	___lwdiv@divisor
  1897     0A9B  0826               	movf	utoa@v+1,w
  1898     0A9C  00F3               	movwf	___lwdiv@dividend+1
  1899     0A9D  0825               	movf	utoa@v,w
  1900     0A9E  00F2               	movwf	___lwdiv@dividend
  1901     0A9F  120A  158A  21FF  120A  158A  	fcall	___lwdiv
  1902     0AA4  0871               	movf	?___lwdiv+1,w
  1903     0AA5  1283               	bcf	3,5	;RP0=0, select bank0
  1904     0AA6  1303               	bcf	3,6	;RP1=0, select bank0
  1905     0AA7  00A6               	movwf	utoa@v+1
  1906     0AA8  0870               	movf	?___lwdiv,w
  1907     0AA9  00A5               	movwf	utoa@v
  1908     0AAA                     l2458:
  1909     0AAA  3001               	movlw	1
  1910     0AAB  00A4               	movwf	??_utoa
  1911     0AAC  0824               	movf	??_utoa,w
  1912     0AAD  07A8               	addwf	utoa@buf,f
  1913     0AAE                     l2460:
  1914     0AAE  0825               	movf	utoa@v,w
  1915     0AAF  0426               	iorwf	utoa@v+1,w
  1916     0AB0  1D03               	btfss	3,2
  1917     0AB1  2AB3               	goto	u3041
  1918     0AB2  2AB4               	goto	u3040
  1919     0AB3                     u3041:
  1920     0AB3  2A97               	goto	l2456
  1921     0AB4                     u3040:
  1922     0AB4                     l2462:
  1923     0AB4  0828               	movf	utoa@buf,w
  1924     0AB5  0084               	movwf	4
  1925     0AB6  1383               	bcf	3,7	;select IRP bank0
  1926     0AB7  0180               	clrf	0
  1927     0AB8                     l2464:
  1928     0AB8  3001               	movlw	1
  1929     0AB9  02A8               	subwf	utoa@buf,f
  1930     0ABA                     l2466:
  1931     0ABA  0823               	movf	utoa@base+1,w
  1932     0ABB  00F9               	movwf	___lwmod@divisor+1
  1933     0ABC  0822               	movf	utoa@base,w
  1934     0ABD  00F8               	movwf	___lwmod@divisor
  1935     0ABE  0821               	movf	utoa@val+1,w
  1936     0ABF  00FB               	movwf	___lwmod@dividend+1
  1937     0AC0  0820               	movf	utoa@val,w
  1938     0AC1  00FA               	movwf	___lwmod@dividend
  1939     0AC2  120A  158A  21C5  120A  158A  	fcall	___lwmod
  1940     0AC7  0878               	movf	?___lwmod,w
  1941     0AC8  1283               	bcf	3,5	;RP0=0, select bank0
  1942     0AC9  1303               	bcf	3,6	;RP1=0, select bank0
  1943     0ACA  00A7               	movwf	utoa@c
  1944     0ACB                     l2468:
  1945     0ACB  0823               	movf	utoa@base+1,w
  1946     0ACC  00F1               	movwf	___lwdiv@divisor+1
  1947     0ACD  0822               	movf	utoa@base,w
  1948     0ACE  00F0               	movwf	___lwdiv@divisor
  1949     0ACF  0821               	movf	utoa@val+1,w
  1950     0AD0  00F3               	movwf	___lwdiv@dividend+1
  1951     0AD1  0820               	movf	utoa@val,w
  1952     0AD2  00F2               	movwf	___lwdiv@dividend
  1953     0AD3  120A  158A  21FF  120A  158A  	fcall	___lwdiv
  1954     0AD8  0871               	movf	?___lwdiv+1,w
  1955     0AD9  1283               	bcf	3,5	;RP0=0, select bank0
  1956     0ADA  1303               	bcf	3,6	;RP1=0, select bank0
  1957     0ADB  00A1               	movwf	utoa@val+1
  1958     0ADC  0870               	movf	?___lwdiv,w
  1959     0ADD  00A0               	movwf	utoa@val
  1960     0ADE                     l2470:
  1961     0ADE  300A               	movlw	10
  1962     0ADF  0227               	subwf	utoa@c,w
  1963     0AE0  1C03               	skipc
  1964     0AE1  2AE3               	goto	u3051
  1965     0AE2  2AE4               	goto	u3050
  1966     0AE3                     u3051:
  1967     0AE3  2AE8               	goto	l770
  1968     0AE4                     u3050:
  1969     0AE4                     l2472:
  1970     0AE4  3007               	movlw	7
  1971     0AE5  00A4               	movwf	??_utoa
  1972     0AE6  0824               	movf	??_utoa,w
  1973     0AE7  07A7               	addwf	utoa@c,f
  1974     0AE8                     l770:
  1975     0AE8  3030               	movlw	48
  1976     0AE9  00A4               	movwf	??_utoa
  1977     0AEA  0824               	movf	??_utoa,w
  1978     0AEB  07A7               	addwf	utoa@c,f
  1979     0AEC                     l2474:
  1980     0AEC  0828               	movf	utoa@buf,w
  1981     0AED  0084               	movwf	4
  1982     0AEE  0827               	movf	utoa@c,w
  1983     0AEF  1383               	bcf	3,7	;select IRP bank0
  1984     0AF0  0080               	movwf	0
  1985     0AF1                     l2476:
  1986     0AF1  3001               	movlw	1
  1987     0AF2  02A8               	subwf	utoa@buf,f
  1988     0AF3                     l2478:
  1989     0AF3  0820               	movf	utoa@val,w
  1990     0AF4  0421               	iorwf	utoa@val+1,w
  1991     0AF5  1D03               	btfss	3,2
  1992     0AF6  2AF8               	goto	u3061
  1993     0AF7  2AF9               	goto	u3060
  1994     0AF8                     u3061:
  1995     0AF8  2ABA               	goto	l2466
  1996     0AF9                     u3060:
  1997     0AF9                     l2480:
  1998     0AF9  3001               	movlw	1
  1999     0AFA  00A4               	movwf	??_utoa
  2000     0AFB  0824               	movf	??_utoa,w
  2001     0AFC  07A8               	addwf	utoa@buf,f
  2002     0AFD  0828               	movf	utoa@buf,w
  2003     0AFE                     l772:
  2004     0AFE  0008               	return
  2005     0AFF                     __end_of_utoa:
  2006                           
  2007                           	psect	text2
  2008     09C5                     __ptext2:	
  2009 ;; *************** function ___lwmod *****************
  2010 ;; Defined at:
  2011 ;;		line 5 in file "C:\Program Files\Microchip\xc8\v2.40\pic\sources\c90\common\lwmod.c"
  2012 ;; Parameters:    Size  Location     Type
  2013 ;;  divisor         2    8[COMMON] unsigned int 
  2014 ;;  dividend        2   10[COMMON] unsigned int 
  2015 ;; Auto vars:     Size  Location     Type
  2016 ;;  counter         1   13[COMMON] unsigned char 
  2017 ;; Return value:  Size  Location     Type
  2018 ;;                  2    8[COMMON] unsigned int 
  2019 ;; Registers used:
  2020 ;;		wreg, status,2, status,0
  2021 ;; Tracked objects:
  2022 ;;		On entry : 0/0
  2023 ;;		On exit  : 0/0
  2024 ;;		Unchanged: 0/0
  2025 ;; Data sizes:     COMMON   BANK0   BANK1   BANK3   BANK2
  2026 ;;      Params:         4       0       0       0       0
  2027 ;;      Locals:         1       0       0       0       0
  2028 ;;      Temps:          1       0       0       0       0
  2029 ;;      Totals:         6       0       0       0       0
  2030 ;;Total ram usage:        6 bytes
  2031 ;; Hardware stack levels used: 1
  2032 ;; This function calls:
  2033 ;;		Nothing
  2034 ;; This function is called by:
  2035 ;;		_main
  2036 ;;		_utoa
  2037 ;; This function uses a non-reentrant model
  2038 ;;
  2039                           
  2040     09C5                     ___lwmod:	
  2041                           ;psect for function ___lwmod
  2042                           
  2043     09C5                     l2112:	
  2044                           ;incstack = 0
  2045                           ; Regs used in ___lwmod: [wreg+status,2+status,0]
  2046                           
  2047     09C5  0878               	movf	___lwmod@divisor,w
  2048     09C6  0479               	iorwf	___lwmod@divisor+1,w
  2049     09C7  1903               	btfsc	3,2
  2050     09C8  29CA               	goto	u2291
  2051     09C9  29CB               	goto	u2290
  2052     09CA                     u2291:
  2053     09CA  29FA               	goto	l2130
  2054     09CB                     u2290:
  2055     09CB                     l2114:
  2056     09CB  01FD               	clrf	___lwmod@counter
  2057     09CC  0AFD               	incf	___lwmod@counter,f
  2058     09CD  29D9               	goto	l2120
  2059     09CE                     l2116:
  2060     09CE  3001               	movlw	1
  2061     09CF                     u2305:
  2062     09CF  1003               	clrc
  2063     09D0  0DF8               	rlf	___lwmod@divisor,f
  2064     09D1  0DF9               	rlf	___lwmod@divisor+1,f
  2065     09D2  3EFF               	addlw	-1
  2066     09D3  1D03               	skipz
  2067     09D4  29CF               	goto	u2305
  2068     09D5                     l2118:
  2069     09D5  3001               	movlw	1
  2070     09D6  00FC               	movwf	??___lwmod
  2071     09D7  087C               	movf	??___lwmod,w
  2072     09D8  07FD               	addwf	___lwmod@counter,f
  2073     09D9                     l2120:
  2074     09D9  1FF9               	btfss	___lwmod@divisor+1,7
  2075     09DA  29DC               	goto	u2311
  2076     09DB  29DD               	goto	u2310
  2077     09DC                     u2311:
  2078     09DC  29CE               	goto	l2116
  2079     09DD                     u2310:
  2080     09DD                     l2122:
  2081     09DD  0879               	movf	___lwmod@divisor+1,w
  2082     09DE  027B               	subwf	___lwmod@dividend+1,w
  2083     09DF  1D03               	skipz
  2084     09E0  29E3               	goto	u2325
  2085     09E1  0878               	movf	___lwmod@divisor,w
  2086     09E2  027A               	subwf	___lwmod@dividend,w
  2087     09E3                     u2325:
  2088     09E3  1C03               	skipc
  2089     09E4  29E6               	goto	u2321
  2090     09E5  29E7               	goto	u2320
  2091     09E6                     u2321:
  2092     09E6  29ED               	goto	l2126
  2093     09E7                     u2320:
  2094     09E7                     l2124:
  2095     09E7  0878               	movf	___lwmod@divisor,w
  2096     09E8  02FA               	subwf	___lwmod@dividend,f
  2097     09E9  0879               	movf	___lwmod@divisor+1,w
  2098     09EA  1C03               	skipc
  2099     09EB  03FB               	decf	___lwmod@dividend+1,f
  2100     09EC  02FB               	subwf	___lwmod@dividend+1,f
  2101     09ED                     l2126:
  2102     09ED  3001               	movlw	1
  2103     09EE                     u2335:
  2104     09EE  1003               	clrc
  2105     09EF  0CF9               	rrf	___lwmod@divisor+1,f
  2106     09F0  0CF8               	rrf	___lwmod@divisor,f
  2107     09F1  3EFF               	addlw	-1
  2108     09F2  1D03               	skipz
  2109     09F3  29EE               	goto	u2335
  2110     09F4                     l2128:
  2111     09F4  3001               	movlw	1
  2112     09F5  02FD               	subwf	___lwmod@counter,f
  2113     09F6  1D03               	btfss	3,2
  2114     09F7  29F9               	goto	u2341
  2115     09F8  29FA               	goto	u2340
  2116     09F9                     u2341:
  2117     09F9  29DD               	goto	l2122
  2118     09FA                     u2340:
  2119     09FA                     l2130:
  2120     09FA  087B               	movf	___lwmod@dividend+1,w
  2121     09FB  00F9               	movwf	?___lwmod+1
  2122     09FC  087A               	movf	___lwmod@dividend,w
  2123     09FD  00F8               	movwf	?___lwmod
  2124     09FE                     l592:
  2125     09FE  0008               	return
  2126     09FF                     __end_of___lwmod:
  2127                           
  2128                           	psect	text3
  2129     09FF                     __ptext3:	
  2130 ;; *************** function ___lwdiv *****************
  2131 ;; Defined at:
  2132 ;;		line 5 in file "C:\Program Files\Microchip\xc8\v2.40\pic\sources\c90\common\lwdiv.c"
  2133 ;; Parameters:    Size  Location     Type
  2134 ;;  divisor         2    0[COMMON] unsigned int 
  2135 ;;  dividend        2    2[COMMON] unsigned int 
  2136 ;; Auto vars:     Size  Location     Type
  2137 ;;  quotient        2    5[COMMON] unsigned int 
  2138 ;;  counter         1    7[COMMON] unsigned char 
  2139 ;; Return value:  Size  Location     Type
  2140 ;;                  2    0[COMMON] unsigned int 
  2141 ;; Registers used:
  2142 ;;		wreg, status,2, status,0
  2143 ;; Tracked objects:
  2144 ;;		On entry : 0/0
  2145 ;;		On exit  : 0/0
  2146 ;;		Unchanged: 0/0
  2147 ;; Data sizes:     COMMON   BANK0   BANK1   BANK3   BANK2
  2148 ;;      Params:         4       0       0       0       0
  2149 ;;      Locals:         3       0       0       0       0
  2150 ;;      Temps:          1       0       0       0       0
  2151 ;;      Totals:         8       0       0       0       0
  2152 ;;Total ram usage:        8 bytes
  2153 ;; Hardware stack levels used: 1
  2154 ;; This function calls:
  2155 ;;		Nothing
  2156 ;; This function is called by:
  2157 ;;		_main
  2158 ;;		_utoa
  2159 ;; This function uses a non-reentrant model
  2160 ;;
  2161                           
  2162     09FF                     ___lwdiv:	
  2163                           ;psect for function ___lwdiv
  2164                           
  2165     09FF                     l2086:	
  2166                           ;incstack = 0
  2167                           ; Regs used in ___lwdiv: [wreg+status,2+status,0]
  2168                           
  2169     09FF  01F5               	clrf	___lwdiv@quotient
  2170     0A00  01F6               	clrf	___lwdiv@quotient+1
  2171     0A01                     l2088:
  2172     0A01  0870               	movf	___lwdiv@divisor,w
  2173     0A02  0471               	iorwf	___lwdiv@divisor+1,w
  2174     0A03  1903               	btfsc	3,2
  2175     0A04  2A06               	goto	u2221
  2176     0A05  2A07               	goto	u2220
  2177     0A06                     u2221:
  2178     0A06  2A3E               	goto	l2108
  2179     0A07                     u2220:
  2180     0A07                     l2090:
  2181     0A07  01F7               	clrf	___lwdiv@counter
  2182     0A08  0AF7               	incf	___lwdiv@counter,f
  2183     0A09  2A15               	goto	l2096
  2184     0A0A                     l2092:
  2185     0A0A  3001               	movlw	1
  2186     0A0B                     u2235:
  2187     0A0B  1003               	clrc
  2188     0A0C  0DF0               	rlf	___lwdiv@divisor,f
  2189     0A0D  0DF1               	rlf	___lwdiv@divisor+1,f
  2190     0A0E  3EFF               	addlw	-1
  2191     0A0F  1D03               	skipz
  2192     0A10  2A0B               	goto	u2235
  2193     0A11                     l2094:
  2194     0A11  3001               	movlw	1
  2195     0A12  00F4               	movwf	??___lwdiv
  2196     0A13  0874               	movf	??___lwdiv,w
  2197     0A14  07F7               	addwf	___lwdiv@counter,f
  2198     0A15                     l2096:
  2199     0A15  1FF1               	btfss	___lwdiv@divisor+1,7
  2200     0A16  2A18               	goto	u2241
  2201     0A17  2A19               	goto	u2240
  2202     0A18                     u2241:
  2203     0A18  2A0A               	goto	l2092
  2204     0A19                     u2240:
  2205     0A19                     l2098:
  2206     0A19  3001               	movlw	1
  2207     0A1A                     u2255:
  2208     0A1A  1003               	clrc
  2209     0A1B  0DF5               	rlf	___lwdiv@quotient,f
  2210     0A1C  0DF6               	rlf	___lwdiv@quotient+1,f
  2211     0A1D  3EFF               	addlw	-1
  2212     0A1E  1D03               	skipz
  2213     0A1F  2A1A               	goto	u2255
  2214     0A20  0871               	movf	___lwdiv@divisor+1,w
  2215     0A21  0273               	subwf	___lwdiv@dividend+1,w
  2216     0A22  1D03               	skipz
  2217     0A23  2A26               	goto	u2265
  2218     0A24  0870               	movf	___lwdiv@divisor,w
  2219     0A25  0272               	subwf	___lwdiv@dividend,w
  2220     0A26                     u2265:
  2221     0A26  1C03               	skipc
  2222     0A27  2A29               	goto	u2261
  2223     0A28  2A2A               	goto	u2260
  2224     0A29                     u2261:
  2225     0A29  2A31               	goto	l2104
  2226     0A2A                     u2260:
  2227     0A2A                     l2100:
  2228     0A2A  0870               	movf	___lwdiv@divisor,w
  2229     0A2B  02F2               	subwf	___lwdiv@dividend,f
  2230     0A2C  0871               	movf	___lwdiv@divisor+1,w
  2231     0A2D  1C03               	skipc
  2232     0A2E  03F3               	decf	___lwdiv@dividend+1,f
  2233     0A2F  02F3               	subwf	___lwdiv@dividend+1,f
  2234     0A30                     l2102:
  2235     0A30  1475               	bsf	___lwdiv@quotient,0
  2236     0A31                     l2104:
  2237     0A31  3001               	movlw	1
  2238     0A32                     u2275:
  2239     0A32  1003               	clrc
  2240     0A33  0CF1               	rrf	___lwdiv@divisor+1,f
  2241     0A34  0CF0               	rrf	___lwdiv@divisor,f
  2242     0A35  3EFF               	addlw	-1
  2243     0A36  1D03               	skipz
  2244     0A37  2A32               	goto	u2275
  2245     0A38                     l2106:
  2246     0A38  3001               	movlw	1
  2247     0A39  02F7               	subwf	___lwdiv@counter,f
  2248     0A3A  1D03               	btfss	3,2
  2249     0A3B  2A3D               	goto	u2281
  2250     0A3C  2A3E               	goto	u2280
  2251     0A3D                     u2281:
  2252     0A3D  2A19               	goto	l2098
  2253     0A3E                     u2280:
  2254     0A3E                     l2108:
  2255     0A3E  0876               	movf	___lwdiv@quotient+1,w
  2256     0A3F  00F1               	movwf	?___lwdiv+1
  2257     0A40  0875               	movf	___lwdiv@quotient,w
  2258     0A41  00F0               	movwf	?___lwdiv
  2259     0A42                     l582:
  2260     0A42  0008               	return
  2261     0A43                     __end_of___lwdiv:
  2262                           
  2263                           	psect	text4
  2264     0996                     __ptext4:	
  2265 ;; *************** function _setup *****************
  2266 ;; Defined at:
  2267 ;;		line 119 in file "C:/Users/Bryan Ortiz/Desktop/Digital2/Lab2D2.X/Lab2D2.c"
  2268 ;; Parameters:    Size  Location     Type
  2269 ;;		None
  2270 ;; Auto vars:     Size  Location     Type
  2271 ;;		None
  2272 ;; Return value:  Size  Location     Type
  2273 ;;                  1    wreg      void 
  2274 ;; Registers used:
  2275 ;;		wreg, fsr0l, fsr0h, status,2, status,0, pclath, cstack
  2276 ;; Tracked objects:
  2277 ;;		On entry : 0/0
  2278 ;;		On exit  : 0/0
  2279 ;;		Unchanged: 0/0
  2280 ;; Data sizes:     COMMON   BANK0   BANK1   BANK3   BANK2
  2281 ;;      Params:         0       0       0       0       0
  2282 ;;      Locals:         0       0       0       0       0
  2283 ;;      Temps:          0       0       0       0       0
  2284 ;;      Totals:         0       0       0       0       0
  2285 ;;Total ram usage:        0 bytes
  2286 ;; Hardware stack levels used: 1
  2287 ;; Hardware stack levels required when called: 3
  2288 ;; This function calls:
  2289 ;;		_Lcd_Init
  2290 ;;		_UART_RX_CONFIG
  2291 ;;		_UART_TX_CONFIG
  2292 ;;		_adc_init
  2293 ;; This function is called by:
  2294 ;;		_main
  2295 ;; This function uses a non-reentrant model
  2296 ;;
  2297                           
  2298     0996                     _setup:	
  2299                           ;psect for function _setup
  2300                           
  2301     0996                     l2428:	
  2302                           ;incstack = 0
  2303                           ; Regs used in _setup: [wreg-fsr0h+status,2+status,0+pclath+cstack]
  2304                           
  2305                           
  2306                           ;C:/Users/Bryan Ortiz/Desktop/Digital2/Lab2D2.X/Lab2D2.c: 120:     ANSEL = 0;
  2307     0996  1683               	bsf	3,5	;RP0=1, select bank3
  2308     0997  1703               	bsf	3,6	;RP1=1, select bank3
  2309     0998  0188               	clrf	8	;volatile
  2310                           
  2311                           ;C:/Users/Bryan Ortiz/Desktop/Digital2/Lab2D2.X/Lab2D2.c: 121:     ANSELH = 0;
  2312     0999  0189               	clrf	9	;volatile
  2313                           
  2314                           ;C:/Users/Bryan Ortiz/Desktop/Digital2/Lab2D2.X/Lab2D2.c: 122:     TRISD = 0;
  2315     099A  1683               	bsf	3,5	;RP0=1, select bank1
  2316     099B  1303               	bcf	3,6	;RP1=0, select bank1
  2317     099C  0188               	clrf	8	;volatile
  2318                           
  2319                           ;C:/Users/Bryan Ortiz/Desktop/Digital2/Lab2D2.X/Lab2D2.c: 123:     TRISE = 0;
  2320     099D  0189               	clrf	9	;volatile
  2321     099E                     l2430:
  2322                           
  2323                           ;C:/Users/Bryan Ortiz/Desktop/Digital2/Lab2D2.X/Lab2D2.c: 124:     adc_init(0);
  2324     099E  3000               	movlw	0
  2325     099F  00F0               	movwf	adc_init@channel
  2326     09A0  00F1               	movwf	adc_init@channel+1
  2327     09A1  120A  158A  23B7  120A  158A  	fcall	_adc_init
  2328     09A6                     l2432:
  2329                           
  2330                           ;C:/Users/Bryan Ortiz/Desktop/Digital2/Lab2D2.X/Lab2D2.c: 125:     Lcd_Init();
  2331     09A6  120A  158A  2243  120A  158A  	fcall	_Lcd_Init
  2332     09AB                     l2434:
  2333                           
  2334                           ;C:/Users/Bryan Ortiz/Desktop/Digital2/Lab2D2.X/Lab2D2.c: 126:     OSCCONbits.IRCF = 0b1
      +                          10;
  2335     09AB  1683               	bsf	3,5	;RP0=1, select bank1
  2336     09AC  1303               	bcf	3,6	;RP1=0, select bank1
  2337     09AD  080F               	movf	15,w	;volatile
  2338     09AE  398F               	andlw	-113
  2339     09AF  3860               	iorlw	96
  2340     09B0  008F               	movwf	15	;volatile
  2341     09B1                     l2436:
  2342                           
  2343                           ;C:/Users/Bryan Ortiz/Desktop/Digital2/Lab2D2.X/Lab2D2.c: 127:     OSCCONbits.SCS = 1;
  2344     09B1  140F               	bsf	15,0	;volatile
  2345     09B2                     l2438:
  2346                           
  2347                           ;C:/Users/Bryan Ortiz/Desktop/Digital2/Lab2D2.X/Lab2D2.c: 128:     UART_RX_CONFIG(9600);
  2348     09B2  3080               	movlw	128
  2349     09B3  00F0               	movwf	UART_RX_CONFIG@baudrate
  2350     09B4  3025               	movlw	37
  2351     09B5  00F1               	movwf	UART_RX_CONFIG@baudrate+1
  2352     09B6  160A  118A  27E6  120A  158A  	fcall	_UART_RX_CONFIG
  2353     09BB                     l2440:
  2354                           
  2355                           ;C:/Users/Bryan Ortiz/Desktop/Digital2/Lab2D2.X/Lab2D2.c: 129:     UART_TX_CONFIG(9600);
  2356     09BB  3080               	movlw	128
  2357     09BC  00F0               	movwf	UART_TX_CONFIG@baudrate
  2358     09BD  3025               	movlw	37
  2359     09BE  00F1               	movwf	UART_TX_CONFIG@baudrate+1
  2360     09BF  160A  118A  27B4  120A  158A  	fcall	_UART_TX_CONFIG
  2361     09C4                     l144:
  2362     09C4  0008               	return
  2363     09C5                     __end_of_setup:
  2364                           
  2365                           	psect	text5
  2366     0BB7                     __ptext5:	
  2367 ;; *************** function _adc_init *****************
  2368 ;; Defined at:
  2369 ;;		line 10 in file "C:/Users/Bryan Ortiz/Desktop/Digital2/Lab2D2.X/ADC.c"
  2370 ;; Parameters:    Size  Location     Type
  2371 ;;  channel         2    0[COMMON] int 
  2372 ;; Auto vars:     Size  Location     Type
  2373 ;;		None
  2374 ;; Return value:  Size  Location     Type
  2375 ;;                  1    wreg      void 
  2376 ;; Registers used:
  2377 ;;		wreg, fsr0l, fsr0h, status,2, status,0
  2378 ;; Tracked objects:
  2379 ;;		On entry : 0/0
  2380 ;;		On exit  : 0/0
  2381 ;;		Unchanged: 0/0
  2382 ;; Data sizes:     COMMON   BANK0   BANK1   BANK3   BANK2
  2383 ;;      Params:         2       0       0       0       0
  2384 ;;      Locals:         0       0       0       0       0
  2385 ;;      Temps:          1       0       0       0       0
  2386 ;;      Totals:         3       0       0       0       0
  2387 ;;Total ram usage:        3 bytes
  2388 ;; Hardware stack levels used: 1
  2389 ;; This function calls:
  2390 ;;		Nothing
  2391 ;; This function is called by:
  2392 ;;		_setup
  2393 ;; This function uses a non-reentrant model
  2394 ;;
  2395                           
  2396     0BB7                     _adc_init:	
  2397                           ;psect for function _adc_init
  2398                           
  2399     0BB7                     l2020:	
  2400                           ;incstack = 0
  2401                           ; Regs used in _adc_init: [wreg-fsr0h+status,2+status,0]
  2402                           
  2403                           
  2404                           ;C:/Users/Bryan Ortiz/Desktop/Digital2/Lab2D2.X/ADC.c: 11:     switch (channel){
  2405     0BB7  2C44               	goto	l2024
  2406     0BB8                     l30:	
  2407                           ;C:/Users/Bryan Ortiz/Desktop/Digital2/Lab2D2.X/ADC.c: 12:         case 0:
  2408                           
  2409                           
  2410                           ;C:/Users/Bryan Ortiz/Desktop/Digital2/Lab2D2.X/ADC.c: 13:             PORTAbits.RA0=0;
  2411     0BB8  1283               	bcf	3,5	;RP0=0, select bank0
  2412     0BB9  1303               	bcf	3,6	;RP1=0, select bank0
  2413     0BBA  1005               	bcf	5,0	;volatile
  2414                           
  2415                           ;C:/Users/Bryan Ortiz/Desktop/Digital2/Lab2D2.X/ADC.c: 14:             TRISAbits.TRISA0=
      +                          1;
  2416     0BBB  1683               	bsf	3,5	;RP0=1, select bank1
  2417     0BBC  1303               	bcf	3,6	;RP1=0, select bank1
  2418     0BBD  1405               	bsf	5,0	;volatile
  2419                           
  2420                           ;C:/Users/Bryan Ortiz/Desktop/Digital2/Lab2D2.X/ADC.c: 15:             ANSELbits.ANS0=1;
  2421     0BBE  1683               	bsf	3,5	;RP0=1, select bank3
  2422     0BBF  1703               	bsf	3,6	;RP1=1, select bank3
  2423     0BC0  1408               	bsf	8,0	;volatile
  2424                           
  2425                           ;C:/Users/Bryan Ortiz/Desktop/Digital2/Lab2D2.X/ADC.c: 16:             break;
  2426     0BC1  2C75               	goto	l31
  2427     0BC2                     l32:	
  2428                           ;C:/Users/Bryan Ortiz/Desktop/Digital2/Lab2D2.X/ADC.c: 17:         case 1:
  2429                           
  2430                           
  2431                           ;C:/Users/Bryan Ortiz/Desktop/Digital2/Lab2D2.X/ADC.c: 18:             PORTAbits.RA1=0;
  2432     0BC2  1283               	bcf	3,5	;RP0=0, select bank0
  2433     0BC3  1303               	bcf	3,6	;RP1=0, select bank0
  2434     0BC4  1085               	bcf	5,1	;volatile
  2435                           
  2436                           ;C:/Users/Bryan Ortiz/Desktop/Digital2/Lab2D2.X/ADC.c: 19:             TRISAbits.TRISA1=
      +                          1;
  2437     0BC5  1683               	bsf	3,5	;RP0=1, select bank1
  2438     0BC6  1303               	bcf	3,6	;RP1=0, select bank1
  2439     0BC7  1485               	bsf	5,1	;volatile
  2440                           
  2441                           ;C:/Users/Bryan Ortiz/Desktop/Digital2/Lab2D2.X/ADC.c: 20:             ANSELbits.ANS1=1;
  2442     0BC8  1683               	bsf	3,5	;RP0=1, select bank3
  2443     0BC9  1703               	bsf	3,6	;RP1=1, select bank3
  2444     0BCA  1488               	bsf	8,1	;volatile
  2445                           
  2446                           ;C:/Users/Bryan Ortiz/Desktop/Digital2/Lab2D2.X/ADC.c: 21:             break;
  2447     0BCB  2C75               	goto	l31
  2448     0BCC                     l33:	
  2449                           ;C:/Users/Bryan Ortiz/Desktop/Digital2/Lab2D2.X/ADC.c: 22:         case 2:
  2450                           
  2451                           
  2452                           ;C:/Users/Bryan Ortiz/Desktop/Digital2/Lab2D2.X/ADC.c: 23:             PORTAbits.RA2=0;
  2453     0BCC  1283               	bcf	3,5	;RP0=0, select bank0
  2454     0BCD  1303               	bcf	3,6	;RP1=0, select bank0
  2455     0BCE  1105               	bcf	5,2	;volatile
  2456                           
  2457                           ;C:/Users/Bryan Ortiz/Desktop/Digital2/Lab2D2.X/ADC.c: 24:             TRISAbits.TRISA2=
      +                          1;
  2458     0BCF  1683               	bsf	3,5	;RP0=1, select bank1
  2459     0BD0  1303               	bcf	3,6	;RP1=0, select bank1
  2460     0BD1  1505               	bsf	5,2	;volatile
  2461                           
  2462                           ;C:/Users/Bryan Ortiz/Desktop/Digital2/Lab2D2.X/ADC.c: 25:             ANSELbits.ANS2=1;
  2463     0BD2  1683               	bsf	3,5	;RP0=1, select bank3
  2464     0BD3  1703               	bsf	3,6	;RP1=1, select bank3
  2465     0BD4  1508               	bsf	8,2	;volatile
  2466                           
  2467                           ;C:/Users/Bryan Ortiz/Desktop/Digital2/Lab2D2.X/ADC.c: 26:             break;
  2468     0BD5  2C75               	goto	l31
  2469     0BD6                     l34:	
  2470                           ;C:/Users/Bryan Ortiz/Desktop/Digital2/Lab2D2.X/ADC.c: 27:         case 3:
  2471                           
  2472                           
  2473                           ;C:/Users/Bryan Ortiz/Desktop/Digital2/Lab2D2.X/ADC.c: 28:             PORTAbits.RA3=0;
  2474     0BD6  1283               	bcf	3,5	;RP0=0, select bank0
  2475     0BD7  1303               	bcf	3,6	;RP1=0, select bank0
  2476     0BD8  1185               	bcf	5,3	;volatile
  2477                           
  2478                           ;C:/Users/Bryan Ortiz/Desktop/Digital2/Lab2D2.X/ADC.c: 29:             TRISAbits.TRISA3=
      +                          1;
  2479     0BD9  1683               	bsf	3,5	;RP0=1, select bank1
  2480     0BDA  1303               	bcf	3,6	;RP1=0, select bank1
  2481     0BDB  1585               	bsf	5,3	;volatile
  2482                           
  2483                           ;C:/Users/Bryan Ortiz/Desktop/Digital2/Lab2D2.X/ADC.c: 30:             ANSELbits.ANS3=1;
  2484     0BDC  1683               	bsf	3,5	;RP0=1, select bank3
  2485     0BDD  1703               	bsf	3,6	;RP1=1, select bank3
  2486     0BDE  1588               	bsf	8,3	;volatile
  2487                           
  2488                           ;C:/Users/Bryan Ortiz/Desktop/Digital2/Lab2D2.X/ADC.c: 31:             break;
  2489     0BDF  2C75               	goto	l31
  2490     0BE0                     l35:	
  2491                           ;C:/Users/Bryan Ortiz/Desktop/Digital2/Lab2D2.X/ADC.c: 32:         case 4:
  2492                           
  2493                           
  2494                           ;C:/Users/Bryan Ortiz/Desktop/Digital2/Lab2D2.X/ADC.c: 33:             PORTAbits.RA5=0;
  2495     0BE0  1283               	bcf	3,5	;RP0=0, select bank0
  2496     0BE1  1303               	bcf	3,6	;RP1=0, select bank0
  2497     0BE2  1285               	bcf	5,5	;volatile
  2498                           
  2499                           ;C:/Users/Bryan Ortiz/Desktop/Digital2/Lab2D2.X/ADC.c: 34:             TRISAbits.TRISA5=
      +                          1;
  2500     0BE3  1683               	bsf	3,5	;RP0=1, select bank1
  2501     0BE4  1303               	bcf	3,6	;RP1=0, select bank1
  2502     0BE5  1685               	bsf	5,5	;volatile
  2503                           
  2504                           ;C:/Users/Bryan Ortiz/Desktop/Digital2/Lab2D2.X/ADC.c: 35:             ANSELbits.ANS4=1;
  2505     0BE6  1683               	bsf	3,5	;RP0=1, select bank3
  2506     0BE7  1703               	bsf	3,6	;RP1=1, select bank3
  2507     0BE8  1608               	bsf	8,4	;volatile
  2508                           
  2509                           ;C:/Users/Bryan Ortiz/Desktop/Digital2/Lab2D2.X/ADC.c: 36:             break;
  2510     0BE9  2C75               	goto	l31
  2511     0BEA                     l36:	
  2512                           ;C:/Users/Bryan Ortiz/Desktop/Digital2/Lab2D2.X/ADC.c: 37:         case 5:
  2513                           
  2514                           
  2515                           ;C:/Users/Bryan Ortiz/Desktop/Digital2/Lab2D2.X/ADC.c: 38:             PORTEbits.RE0=0;
  2516     0BEA  1283               	bcf	3,5	;RP0=0, select bank0
  2517     0BEB  1303               	bcf	3,6	;RP1=0, select bank0
  2518     0BEC  1009               	bcf	9,0	;volatile
  2519                           
  2520                           ;C:/Users/Bryan Ortiz/Desktop/Digital2/Lab2D2.X/ADC.c: 39:             TRISEbits.TRISE0=
      +                          1;
  2521     0BED  1683               	bsf	3,5	;RP0=1, select bank1
  2522     0BEE  1303               	bcf	3,6	;RP1=0, select bank1
  2523     0BEF  1409               	bsf	9,0	;volatile
  2524                           
  2525                           ;C:/Users/Bryan Ortiz/Desktop/Digital2/Lab2D2.X/ADC.c: 40:             ANSELbits.ANS5=1;
  2526     0BF0  1683               	bsf	3,5	;RP0=1, select bank3
  2527     0BF1  1703               	bsf	3,6	;RP1=1, select bank3
  2528     0BF2  1688               	bsf	8,5	;volatile
  2529                           
  2530                           ;C:/Users/Bryan Ortiz/Desktop/Digital2/Lab2D2.X/ADC.c: 41:             break;
  2531     0BF3  2C75               	goto	l31
  2532     0BF4                     l37:	
  2533                           ;C:/Users/Bryan Ortiz/Desktop/Digital2/Lab2D2.X/ADC.c: 42:         case 6:
  2534                           
  2535                           
  2536                           ;C:/Users/Bryan Ortiz/Desktop/Digital2/Lab2D2.X/ADC.c: 43:             PORTEbits.RE1=0;
  2537     0BF4  1283               	bcf	3,5	;RP0=0, select bank0
  2538     0BF5  1303               	bcf	3,6	;RP1=0, select bank0
  2539     0BF6  1089               	bcf	9,1	;volatile
  2540                           
  2541                           ;C:/Users/Bryan Ortiz/Desktop/Digital2/Lab2D2.X/ADC.c: 44:             TRISEbits.TRISE1=
      +                          1;
  2542     0BF7  1683               	bsf	3,5	;RP0=1, select bank1
  2543     0BF8  1303               	bcf	3,6	;RP1=0, select bank1
  2544     0BF9  1489               	bsf	9,1	;volatile
  2545                           
  2546                           ;C:/Users/Bryan Ortiz/Desktop/Digital2/Lab2D2.X/ADC.c: 45:             ANSELbits.ANS6=1;
  2547     0BFA  1683               	bsf	3,5	;RP0=1, select bank3
  2548     0BFB  1703               	bsf	3,6	;RP1=1, select bank3
  2549     0BFC  1708               	bsf	8,6	;volatile
  2550                           
  2551                           ;C:/Users/Bryan Ortiz/Desktop/Digital2/Lab2D2.X/ADC.c: 46:             break;
  2552     0BFD  2C75               	goto	l31
  2553     0BFE                     l38:	
  2554                           ;C:/Users/Bryan Ortiz/Desktop/Digital2/Lab2D2.X/ADC.c: 47:         case 7:
  2555                           
  2556                           
  2557                           ;C:/Users/Bryan Ortiz/Desktop/Digital2/Lab2D2.X/ADC.c: 48:             PORTEbits.RE2=0;
  2558     0BFE  1283               	bcf	3,5	;RP0=0, select bank0
  2559     0BFF  1303               	bcf	3,6	;RP1=0, select bank0
  2560     0C00  1109               	bcf	9,2	;volatile
  2561                           
  2562                           ;C:/Users/Bryan Ortiz/Desktop/Digital2/Lab2D2.X/ADC.c: 49:             TRISEbits.TRISE2=
      +                          1;
  2563     0C01  1683               	bsf	3,5	;RP0=1, select bank1
  2564     0C02  1303               	bcf	3,6	;RP1=0, select bank1
  2565     0C03  1509               	bsf	9,2	;volatile
  2566                           
  2567                           ;C:/Users/Bryan Ortiz/Desktop/Digital2/Lab2D2.X/ADC.c: 50:             ANSELbits.ANS7=1;
  2568     0C04  1683               	bsf	3,5	;RP0=1, select bank3
  2569     0C05  1703               	bsf	3,6	;RP1=1, select bank3
  2570     0C06  1788               	bsf	8,7	;volatile
  2571                           
  2572                           ;C:/Users/Bryan Ortiz/Desktop/Digital2/Lab2D2.X/ADC.c: 51:             break;
  2573     0C07  2C75               	goto	l31
  2574     0C08                     l39:	
  2575                           ;C:/Users/Bryan Ortiz/Desktop/Digital2/Lab2D2.X/ADC.c: 52:         case 8:
  2576                           
  2577                           
  2578                           ;C:/Users/Bryan Ortiz/Desktop/Digital2/Lab2D2.X/ADC.c: 53:             PORTBbits.RB2=0;
  2579     0C08  1283               	bcf	3,5	;RP0=0, select bank0
  2580     0C09  1303               	bcf	3,6	;RP1=0, select bank0
  2581     0C0A  1106               	bcf	6,2	;volatile
  2582                           
  2583                           ;C:/Users/Bryan Ortiz/Desktop/Digital2/Lab2D2.X/ADC.c: 54:             TRISBbits.TRISB2=
      +                          1;
  2584     0C0B  1683               	bsf	3,5	;RP0=1, select bank1
  2585     0C0C  1303               	bcf	3,6	;RP1=0, select bank1
  2586     0C0D  1506               	bsf	6,2	;volatile
  2587                           
  2588                           ;C:/Users/Bryan Ortiz/Desktop/Digital2/Lab2D2.X/ADC.c: 55:             ANSELHbits.ANS8=1
      +                          ;
  2589     0C0E  1683               	bsf	3,5	;RP0=1, select bank3
  2590     0C0F  1703               	bsf	3,6	;RP1=1, select bank3
  2591     0C10  1409               	bsf	9,0	;volatile
  2592                           
  2593                           ;C:/Users/Bryan Ortiz/Desktop/Digital2/Lab2D2.X/ADC.c: 56:             break;
  2594     0C11  2C75               	goto	l31
  2595     0C12                     l40:	
  2596                           ;C:/Users/Bryan Ortiz/Desktop/Digital2/Lab2D2.X/ADC.c: 57:         case 9:
  2597                           
  2598                           
  2599                           ;C:/Users/Bryan Ortiz/Desktop/Digital2/Lab2D2.X/ADC.c: 58:             PORTBbits.RB3=0;
  2600     0C12  1283               	bcf	3,5	;RP0=0, select bank0
  2601     0C13  1303               	bcf	3,6	;RP1=0, select bank0
  2602     0C14  1186               	bcf	6,3	;volatile
  2603                           
  2604                           ;C:/Users/Bryan Ortiz/Desktop/Digital2/Lab2D2.X/ADC.c: 59:             TRISBbits.TRISB3=
      +                          1;
  2605     0C15  1683               	bsf	3,5	;RP0=1, select bank1
  2606     0C16  1303               	bcf	3,6	;RP1=0, select bank1
  2607     0C17  1586               	bsf	6,3	;volatile
  2608                           
  2609                           ;C:/Users/Bryan Ortiz/Desktop/Digital2/Lab2D2.X/ADC.c: 60:             ANSELHbits.ANS9=1
      +                          ;
  2610     0C18  1683               	bsf	3,5	;RP0=1, select bank3
  2611     0C19  1703               	bsf	3,6	;RP1=1, select bank3
  2612     0C1A  1489               	bsf	9,1	;volatile
  2613                           
  2614                           ;C:/Users/Bryan Ortiz/Desktop/Digital2/Lab2D2.X/ADC.c: 61:             break;
  2615     0C1B  2C75               	goto	l31
  2616     0C1C                     l41:	
  2617                           ;C:/Users/Bryan Ortiz/Desktop/Digital2/Lab2D2.X/ADC.c: 62:         case 10:
  2618                           
  2619                           
  2620                           ;C:/Users/Bryan Ortiz/Desktop/Digital2/Lab2D2.X/ADC.c: 63:             PORTBbits.RB1=0;
  2621     0C1C  1283               	bcf	3,5	;RP0=0, select bank0
  2622     0C1D  1303               	bcf	3,6	;RP1=0, select bank0
  2623     0C1E  1086               	bcf	6,1	;volatile
  2624                           
  2625                           ;C:/Users/Bryan Ortiz/Desktop/Digital2/Lab2D2.X/ADC.c: 64:             TRISBbits.TRISB1=
      +                          1;
  2626     0C1F  1683               	bsf	3,5	;RP0=1, select bank1
  2627     0C20  1303               	bcf	3,6	;RP1=0, select bank1
  2628     0C21  1486               	bsf	6,1	;volatile
  2629                           
  2630                           ;C:/Users/Bryan Ortiz/Desktop/Digital2/Lab2D2.X/ADC.c: 65:             ANSELHbits.ANS10=
      +                          1;
  2631     0C22  1683               	bsf	3,5	;RP0=1, select bank3
  2632     0C23  1703               	bsf	3,6	;RP1=1, select bank3
  2633     0C24  1509               	bsf	9,2	;volatile
  2634                           
  2635                           ;C:/Users/Bryan Ortiz/Desktop/Digital2/Lab2D2.X/ADC.c: 66:             break;
  2636     0C25  2C75               	goto	l31
  2637     0C26                     l42:	
  2638                           ;C:/Users/Bryan Ortiz/Desktop/Digital2/Lab2D2.X/ADC.c: 67:         case 11:
  2639                           
  2640                           
  2641                           ;C:/Users/Bryan Ortiz/Desktop/Digital2/Lab2D2.X/ADC.c: 68:             PORTBbits.RB4=0;
  2642     0C26  1283               	bcf	3,5	;RP0=0, select bank0
  2643     0C27  1303               	bcf	3,6	;RP1=0, select bank0
  2644     0C28  1206               	bcf	6,4	;volatile
  2645                           
  2646                           ;C:/Users/Bryan Ortiz/Desktop/Digital2/Lab2D2.X/ADC.c: 69:             TRISBbits.TRISB4=
      +                          1;
  2647     0C29  1683               	bsf	3,5	;RP0=1, select bank1
  2648     0C2A  1303               	bcf	3,6	;RP1=0, select bank1
  2649     0C2B  1606               	bsf	6,4	;volatile
  2650                           
  2651                           ;C:/Users/Bryan Ortiz/Desktop/Digital2/Lab2D2.X/ADC.c: 70:             ANSELHbits.ANS11=
      +                          1;
  2652     0C2C  1683               	bsf	3,5	;RP0=1, select bank3
  2653     0C2D  1703               	bsf	3,6	;RP1=1, select bank3
  2654     0C2E  1589               	bsf	9,3	;volatile
  2655                           
  2656                           ;C:/Users/Bryan Ortiz/Desktop/Digital2/Lab2D2.X/ADC.c: 71:             break;
  2657     0C2F  2C75               	goto	l31
  2658     0C30                     l43:	
  2659                           ;C:/Users/Bryan Ortiz/Desktop/Digital2/Lab2D2.X/ADC.c: 72:         case 12:
  2660                           
  2661                           
  2662                           ;C:/Users/Bryan Ortiz/Desktop/Digital2/Lab2D2.X/ADC.c: 73:             PORTBbits.RB0=0;
  2663     0C30  1283               	bcf	3,5	;RP0=0, select bank0
  2664     0C31  1303               	bcf	3,6	;RP1=0, select bank0
  2665     0C32  1006               	bcf	6,0	;volatile
  2666                           
  2667                           ;C:/Users/Bryan Ortiz/Desktop/Digital2/Lab2D2.X/ADC.c: 74:             TRISBbits.TRISB0=
      +                          1;
  2668     0C33  1683               	bsf	3,5	;RP0=1, select bank1
  2669     0C34  1303               	bcf	3,6	;RP1=0, select bank1
  2670     0C35  1406               	bsf	6,0	;volatile
  2671                           
  2672                           ;C:/Users/Bryan Ortiz/Desktop/Digital2/Lab2D2.X/ADC.c: 75:             ANSELHbits.ANS12=
      +                          1;
  2673     0C36  1683               	bsf	3,5	;RP0=1, select bank3
  2674     0C37  1703               	bsf	3,6	;RP1=1, select bank3
  2675     0C38  1609               	bsf	9,4	;volatile
  2676                           
  2677                           ;C:/Users/Bryan Ortiz/Desktop/Digital2/Lab2D2.X/ADC.c: 76:             break;
  2678     0C39  2C75               	goto	l31
  2679     0C3A                     l44:	
  2680                           ;C:/Users/Bryan Ortiz/Desktop/Digital2/Lab2D2.X/ADC.c: 77:         case 13:
  2681                           
  2682                           
  2683                           ;C:/Users/Bryan Ortiz/Desktop/Digital2/Lab2D2.X/ADC.c: 78:             PORTBbits.RB5=0;
  2684     0C3A  1283               	bcf	3,5	;RP0=0, select bank0
  2685     0C3B  1303               	bcf	3,6	;RP1=0, select bank0
  2686     0C3C  1286               	bcf	6,5	;volatile
  2687                           
  2688                           ;C:/Users/Bryan Ortiz/Desktop/Digital2/Lab2D2.X/ADC.c: 79:             TRISBbits.TRISB5=
      +                          1;
  2689     0C3D  1683               	bsf	3,5	;RP0=1, select bank1
  2690     0C3E  1303               	bcf	3,6	;RP1=0, select bank1
  2691     0C3F  1686               	bsf	6,5	;volatile
  2692                           
  2693                           ;C:/Users/Bryan Ortiz/Desktop/Digital2/Lab2D2.X/ADC.c: 80:             ANSELHbits.ANS13=
      +                          1;
  2694     0C40  1683               	bsf	3,5	;RP0=1, select bank3
  2695     0C41  1703               	bsf	3,6	;RP1=1, select bank3
  2696     0C42  1689               	bsf	9,5	;volatile
  2697                           
  2698                           ;C:/Users/Bryan Ortiz/Desktop/Digital2/Lab2D2.X/ADC.c: 81:             break;
  2699     0C43  2C75               	goto	l31
  2700     0C44                     l2024:
  2701                           
  2702                           ; Switch on 2 bytes has been partitioned into a top level switch of size 1, and 1 sub-sw
      +                          itches
  2703                           ; Switch size 1, requested type "simple"
  2704                           ; Number of cases is 1, Range of values is 0 to 0
  2705                           ; switch strategies available:
  2706                           ; Name         Instructions Cycles
  2707                           ; simple_byte            4     3 (average)
  2708                           ; direct_byte           11     8 (fixed)
  2709                           ; jumptable            260     6 (fixed)
  2710                           ;	Chosen strategy is simple_byte
  2711     0C44  0871               	movf	adc_init@channel+1,w
  2712     0C45  3A00               	xorlw	0	; case 0
  2713     0C46  1903               	skipnz
  2714     0C47  2C49               	goto	l2696
  2715     0C48  2C75               	goto	l31
  2716     0C49                     l2696:
  2717                           
  2718                           ; Switch size 1, requested type "simple"
  2719                           ; Number of cases is 14, Range of values is 0 to 13
  2720                           ; switch strategies available:
  2721                           ; Name         Instructions Cycles
  2722                           ; simple_byte           43    22 (average)
  2723                           ; direct_byte           50     8 (fixed)
  2724                           ; jumptable            260     6 (fixed)
  2725                           ;	Chosen strategy is simple_byte
  2726     0C49  0870               	movf	adc_init@channel,w
  2727     0C4A  3A00               	xorlw	0	; case 0
  2728     0C4B  1903               	skipnz
  2729     0C4C  2BB8               	goto	l30
  2730     0C4D  3A01               	xorlw	1	; case 1
  2731     0C4E  1903               	skipnz
  2732     0C4F  2BC2               	goto	l32
  2733     0C50  3A03               	xorlw	3	; case 2
  2734     0C51  1903               	skipnz
  2735     0C52  2BCC               	goto	l33
  2736     0C53  3A01               	xorlw	1	; case 3
  2737     0C54  1903               	skipnz
  2738     0C55  2BD6               	goto	l34
  2739     0C56  3A07               	xorlw	7	; case 4
  2740     0C57  1903               	skipnz
  2741     0C58  2BE0               	goto	l35
  2742     0C59  3A01               	xorlw	1	; case 5
  2743     0C5A  1903               	skipnz
  2744     0C5B  2BEA               	goto	l36
  2745     0C5C  3A03               	xorlw	3	; case 6
  2746     0C5D  1903               	skipnz
  2747     0C5E  2BF4               	goto	l37
  2748     0C5F  3A01               	xorlw	1	; case 7
  2749     0C60  1903               	skipnz
  2750     0C61  2BFE               	goto	l38
  2751     0C62  3A0F               	xorlw	15	; case 8
  2752     0C63  1903               	skipnz
  2753     0C64  2C08               	goto	l39
  2754     0C65  3A01               	xorlw	1	; case 9
  2755     0C66  1903               	skipnz
  2756     0C67  2C12               	goto	l40
  2757     0C68  3A03               	xorlw	3	; case 10
  2758     0C69  1903               	skipnz
  2759     0C6A  2C1C               	goto	l41
  2760     0C6B  3A01               	xorlw	1	; case 11
  2761     0C6C  1903               	skipnz
  2762     0C6D  2C26               	goto	l42
  2763     0C6E  3A07               	xorlw	7	; case 12
  2764     0C6F  1903               	skipnz
  2765     0C70  2C30               	goto	l43
  2766     0C71  3A01               	xorlw	1	; case 13
  2767     0C72  1903               	skipnz
  2768     0C73  2C3A               	goto	l44
  2769     0C74  2C75               	goto	l31
  2770     0C75                     l31:
  2771                           
  2772                           ;C:/Users/Bryan Ortiz/Desktop/Digital2/Lab2D2.X/ADC.c: 84:     ADCON0bits.ADCS1=0;
  2773     0C75  1283               	bcf	3,5	;RP0=0, select bank0
  2774     0C76  1303               	bcf	3,6	;RP1=0, select bank0
  2775     0C77  139F               	bcf	31,7	;volatile
  2776                           
  2777                           ;C:/Users/Bryan Ortiz/Desktop/Digital2/Lab2D2.X/ADC.c: 85:     ADCON0bits.ADCS0=1;
  2778     0C78  171F               	bsf	31,6	;volatile
  2779     0C79                     l2026:
  2780                           
  2781                           ;C:/Users/Bryan Ortiz/Desktop/Digital2/Lab2D2.X/ADC.c: 86:     ADCON0bits.ADCS =01;
  2782     0C79  081F               	movf	31,w	;volatile
  2783     0C7A  393F               	andlw	-193
  2784     0C7B  3840               	iorlw	64
  2785     0C7C  009F               	movwf	31	;volatile
  2786     0C7D                     l2028:
  2787                           
  2788                           ;C:/Users/Bryan Ortiz/Desktop/Digital2/Lab2D2.X/ADC.c: 87:     ADCON1bits.VCFG1=0;
  2789     0C7D  1683               	bsf	3,5	;RP0=1, select bank1
  2790     0C7E  1303               	bcf	3,6	;RP1=0, select bank1
  2791     0C7F  129F               	bcf	31,5	;volatile
  2792     0C80                     l2030:
  2793                           
  2794                           ;C:/Users/Bryan Ortiz/Desktop/Digital2/Lab2D2.X/ADC.c: 88:     ADCON1bits.VCFG0=0;
  2795     0C80  121F               	bcf	31,4	;volatile
  2796     0C81                     l2032:
  2797                           
  2798                           ;C:/Users/Bryan Ortiz/Desktop/Digital2/Lab2D2.X/ADC.c: 90:     ADCON1bits.ADFM=0;
  2799     0C81  139F               	bcf	31,7	;volatile
  2800     0C82                     l2034:
  2801                           
  2802                           ;C:/Users/Bryan Ortiz/Desktop/Digital2/Lab2D2.X/ADC.c: 91:     ADCON0bits.ADON=1;
  2803     0C82  1283               	bcf	3,5	;RP0=0, select bank0
  2804     0C83  1303               	bcf	3,6	;RP1=0, select bank0
  2805     0C84  141F               	bsf	31,0	;volatile
  2806     0C85                     l2036:
  2807                           
  2808                           ;C:/Users/Bryan Ortiz/Desktop/Digital2/Lab2D2.X/ADC.c: 93:     _delay((unsigned long)((1
      +                          00)*(4000000/4000000.0)));
  2809     0C85  3021               	movlw	33
  2810     0C86  00F2               	movwf	??_adc_init
  2811     0C87                     u3427:
  2812     0C87  0BF2               	decfsz	??_adc_init,f
  2813     0C88  2C87               	goto	u3427
  2814     0C89                     l45:
  2815     0C89  0008               	return
  2816     0C8A                     __end_of_adc_init:
  2817                           
  2818                           	psect	text6
  2819     17B4                     __ptext6:	
  2820 ;; *************** function _UART_TX_CONFIG *****************
  2821 ;; Defined at:
  2822 ;;		line 24 in file "C:/Users/Bryan Ortiz/Desktop/Digital2/LAB1D2.X/USART.c"
  2823 ;; Parameters:    Size  Location     Type
  2824 ;;  baudrate        2    0[COMMON] unsigned int 
  2825 ;; Auto vars:     Size  Location     Type
  2826 ;;		None
  2827 ;; Return value:  Size  Location     Type
  2828 ;;                  1    wreg      void 
  2829 ;; Registers used:
  2830 ;;		wreg, status,2, status,0
  2831 ;; Tracked objects:
  2832 ;;		On entry : 0/0
  2833 ;;		On exit  : 0/0
  2834 ;;		Unchanged: 0/0
  2835 ;; Data sizes:     COMMON   BANK0   BANK1   BANK3   BANK2
  2836 ;;      Params:         2       0       0       0       0
  2837 ;;      Locals:         0       0       0       0       0
  2838 ;;      Temps:          0       0       0       0       0
  2839 ;;      Totals:         2       0       0       0       0
  2840 ;;Total ram usage:        2 bytes
  2841 ;; Hardware stack levels used: 1
  2842 ;; This function calls:
  2843 ;;		Nothing
  2844 ;; This function is called by:
  2845 ;;		_setup
  2846 ;; This function uses a non-reentrant model
  2847 ;;
  2848                           
  2849     17B4                     _UART_TX_CONFIG:	
  2850                           ;psect for function _UART_TX_CONFIG
  2851                           
  2852     17B4                     l2076:	
  2853                           ;incstack = 0
  2854                           ; Regs used in _UART_TX_CONFIG: [wreg+status,2+status,0]
  2855                           
  2856                           
  2857                           ;C:/Users/Bryan Ortiz/Desktop/Digital2/LAB1D2.X/USART.c: 26:     TXSTAbits.SYNC = 0;
  2858     17B4  1683               	bsf	3,5	;RP0=1, select bank1
  2859     17B5  1303               	bcf	3,6	;RP1=0, select bank1
  2860     17B6  1218               	bcf	24,4	;volatile
  2861                           
  2862                           ;C:/Users/Bryan Ortiz/Desktop/Digital2/LAB1D2.X/USART.c: 27:     TXSTAbits.BRGH = 1;
  2863     17B7  1518               	bsf	24,2	;volatile
  2864                           
  2865                           ;C:/Users/Bryan Ortiz/Desktop/Digital2/LAB1D2.X/USART.c: 28:     BAUDCTLbits.BRG16 = 1;
  2866     17B8  1683               	bsf	3,5	;RP0=1, select bank3
  2867     17B9  1703               	bsf	3,6	;RP1=1, select bank3
  2868     17BA  1587               	bsf	7,3	;volatile
  2869     17BB                     l2078:
  2870                           
  2871                           ;C:/Users/Bryan Ortiz/Desktop/Digital2/LAB1D2.X/USART.c: 30:     if(baudrate==9600){
  2872     17BB  3080               	movlw	128
  2873     17BC  0670               	xorwf	UART_TX_CONFIG@baudrate,w
  2874     17BD  3025               	movlw	37
  2875     17BE  1903               	skipnz
  2876     17BF  0671               	xorwf	UART_TX_CONFIG@baudrate+1,w
  2877     17C0  1D03               	btfss	3,2
  2878     17C1  2FC3               	goto	u2211
  2879     17C2  2FC4               	goto	u2210
  2880     17C3                     u2211:
  2881     17C3  2FC9               	goto	l2084
  2882     17C4                     u2210:
  2883     17C4                     l2080:
  2884                           
  2885                           ;C:/Users/Bryan Ortiz/Desktop/Digital2/LAB1D2.X/USART.c: 31:         SPBRG = 103;
  2886     17C4  3067               	movlw	103
  2887     17C5  1683               	bsf	3,5	;RP0=1, select bank1
  2888     17C6  1303               	bcf	3,6	;RP1=0, select bank1
  2889     17C7  0099               	movwf	25	;volatile
  2890     17C8                     l2082:
  2891                           
  2892                           ;C:/Users/Bryan Ortiz/Desktop/Digital2/LAB1D2.X/USART.c: 32:         SPBRGH = 0;
  2893     17C8  019A               	clrf	26	;volatile
  2894     17C9                     l2084:
  2895                           
  2896                           ;C:/Users/Bryan Ortiz/Desktop/Digital2/LAB1D2.X/USART.c: 35:     TXSTAbits.TXEN = 1;
  2897     17C9  1303               	bcf	3,6	;RP1=0, select bank1
  2898     17CA  1698               	bsf	24,5	;volatile
  2899     17CB                     l212:
  2900     17CB  0008               	return
  2901     17CC                     __end_of_UART_TX_CONFIG:
  2902                           
  2903                           	psect	text7
  2904     17E6                     __ptext7:	
  2905 ;; *************** function _UART_RX_CONFIG *****************
  2906 ;; Defined at:
  2907 ;;		line 9 in file "C:/Users/Bryan Ortiz/Desktop/Digital2/LAB1D2.X/USART.c"
  2908 ;; Parameters:    Size  Location     Type
  2909 ;;  baudrate        2    0[COMMON] unsigned int 
  2910 ;; Auto vars:     Size  Location     Type
  2911 ;;		None
  2912 ;; Return value:  Size  Location     Type
  2913 ;;                  1    wreg      void 
  2914 ;; Registers used:
  2915 ;;		wreg, status,2, status,0
  2916 ;; Tracked objects:
  2917 ;;		On entry : 0/0
  2918 ;;		On exit  : 0/0
  2919 ;;		Unchanged: 0/0
  2920 ;; Data sizes:     COMMON   BANK0   BANK1   BANK3   BANK2
  2921 ;;      Params:         2       0       0       0       0
  2922 ;;      Locals:         0       0       0       0       0
  2923 ;;      Temps:          0       0       0       0       0
  2924 ;;      Totals:         2       0       0       0       0
  2925 ;;Total ram usage:        2 bytes
  2926 ;; Hardware stack levels used: 1
  2927 ;; This function calls:
  2928 ;;		Nothing
  2929 ;; This function is called by:
  2930 ;;		_setup
  2931 ;; This function uses a non-reentrant model
  2932 ;;
  2933                           
  2934     17E6                     _UART_RX_CONFIG:	
  2935                           ;psect for function _UART_RX_CONFIG
  2936                           
  2937     17E6                     l2062:	
  2938                           ;incstack = 0
  2939                           ; Regs used in _UART_RX_CONFIG: [wreg+status,2+status,0]
  2940                           
  2941                           
  2942                           ;C:/Users/Bryan Ortiz/Desktop/Digital2/LAB1D2.X/USART.c: 11:     TXSTAbits.BRGH = 1;
  2943     17E6  1683               	bsf	3,5	;RP0=1, select bank1
  2944     17E7  1303               	bcf	3,6	;RP1=0, select bank1
  2945     17E8  1518               	bsf	24,2	;volatile
  2946                           
  2947                           ;C:/Users/Bryan Ortiz/Desktop/Digital2/LAB1D2.X/USART.c: 12:     BAUDCTLbits.BRG16 = 1;
  2948     17E9  1683               	bsf	3,5	;RP0=1, select bank3
  2949     17EA  1703               	bsf	3,6	;RP1=1, select bank3
  2950     17EB  1587               	bsf	7,3	;volatile
  2951     17EC                     l2064:
  2952                           
  2953                           ;C:/Users/Bryan Ortiz/Desktop/Digital2/LAB1D2.X/USART.c: 14:     if(baudrate==9600){
  2954     17EC  3080               	movlw	128
  2955     17ED  0670               	xorwf	UART_RX_CONFIG@baudrate,w
  2956     17EE  3025               	movlw	37
  2957     17EF  1903               	skipnz
  2958     17F0  0671               	xorwf	UART_RX_CONFIG@baudrate+1,w
  2959     17F1  1D03               	btfss	3,2
  2960     17F2  2FF4               	goto	u2201
  2961     17F3  2FF5               	goto	u2200
  2962     17F4                     u2201:
  2963     17F4  2FFA               	goto	l2070
  2964     17F5                     u2200:
  2965     17F5                     l2066:
  2966                           
  2967                           ;C:/Users/Bryan Ortiz/Desktop/Digital2/LAB1D2.X/USART.c: 15:         SPBRG = 103;
  2968     17F5  3067               	movlw	103
  2969     17F6  1683               	bsf	3,5	;RP0=1, select bank1
  2970     17F7  1303               	bcf	3,6	;RP1=0, select bank1
  2971     17F8  0099               	movwf	25	;volatile
  2972     17F9                     l2068:
  2973                           
  2974                           ;C:/Users/Bryan Ortiz/Desktop/Digital2/LAB1D2.X/USART.c: 16:         SPBRGH = 0;
  2975     17F9  019A               	clrf	26	;volatile
  2976     17FA                     l2070:
  2977                           
  2978                           ;C:/Users/Bryan Ortiz/Desktop/Digital2/LAB1D2.X/USART.c: 19:     RCSTAbits.SPEN = 1;
  2979     17FA  1283               	bcf	3,5	;RP0=0, select bank0
  2980     17FB  1303               	bcf	3,6	;RP1=0, select bank0
  2981     17FC  1798               	bsf	24,7	;volatile
  2982     17FD                     l2072:
  2983                           
  2984                           ;C:/Users/Bryan Ortiz/Desktop/Digital2/LAB1D2.X/USART.c: 20:     RCSTAbits.RX9 = 0;
  2985     17FD  1318               	bcf	24,6	;volatile
  2986     17FE                     l2074:
  2987                           
  2988                           ;C:/Users/Bryan Ortiz/Desktop/Digital2/LAB1D2.X/USART.c: 21:     RCSTAbits.CREN = 1;
  2989     17FE  1618               	bsf	24,4	;volatile
  2990     17FF                     l208:
  2991     17FF  0008               	return
  2992     1800                     __end_of_UART_RX_CONFIG:
  2993                           
  2994                           	psect	text8
  2995     0A43                     __ptext8:	
  2996 ;; *************** function _Lcd_Init *****************
  2997 ;; Defined at:
  2998 ;;		line 41 in file "C:/Users/Bryan Ortiz/Desktop/Digital2/Lab2D2.X/LCD8B.c"
  2999 ;; Parameters:    Size  Location     Type
  3000 ;;		None
  3001 ;; Auto vars:     Size  Location     Type
  3002 ;;		None
  3003 ;; Return value:  Size  Location     Type
  3004 ;;                  1    wreg      void 
  3005 ;; Registers used:
  3006 ;;		wreg, status,2, status,0, pclath, cstack
  3007 ;; Tracked objects:
  3008 ;;		On entry : 0/0
  3009 ;;		On exit  : 0/0
  3010 ;;		Unchanged: 0/0
  3011 ;; Data sizes:     COMMON   BANK0   BANK1   BANK3   BANK2
  3012 ;;      Params:         0       0       0       0       0
  3013 ;;      Locals:         0       0       0       0       0
  3014 ;;      Temps:          2       0       0       0       0
  3015 ;;      Totals:         2       0       0       0       0
  3016 ;;Total ram usage:        2 bytes
  3017 ;; Hardware stack levels used: 1
  3018 ;; Hardware stack levels required when called: 2
  3019 ;; This function calls:
  3020 ;;		_Lcd_Cmd
  3021 ;;		_Lcd_Port
  3022 ;; This function is called by:
  3023 ;;		_setup
  3024 ;; This function uses a non-reentrant model
  3025 ;;
  3026                           
  3027     0A43                     _Lcd_Init:	
  3028                           ;psect for function _Lcd_Init
  3029                           
  3030     0A43                     l2052:	
  3031                           ;incstack = 0
  3032                           ; Regs used in _Lcd_Init: [wreg+status,2+status,0+pclath+cstack]
  3033                           
  3034                           
  3035                           ;C:/Users/Bryan Ortiz/Desktop/Digital2/Lab2D2.X/LCD8B.c: 42:     Lcd_Port(0x00);
  3036     0A43  3000               	movlw	0
  3037     0A44  160A  118A  276F  120A  158A  	fcall	_Lcd_Port
  3038     0A49                     l2054:
  3039                           
  3040                           ;C:/Users/Bryan Ortiz/Desktop/Digital2/Lab2D2.X/LCD8B.c: 43:     _delay((unsigned long)(
      +                          (15)*(8000000/4000.0)));
  3041     0A49  3027               	movlw	39
  3042     0A4A  00F5               	movwf	??_Lcd_Init+1
  3043     0A4B  30F5               	movlw	245
  3044     0A4C  00F4               	movwf	??_Lcd_Init
  3045     0A4D                     u3437:
  3046     0A4D  0BF4               	decfsz	??_Lcd_Init,f
  3047     0A4E  2A4D               	goto	u3437
  3048     0A4F  0BF5               	decfsz	??_Lcd_Init+1,f
  3049     0A50  2A4D               	goto	u3437
  3050     0A51                     l2056:
  3051                           
  3052                           ;C:/Users/Bryan Ortiz/Desktop/Digital2/Lab2D2.X/LCD8B.c: 44:     Lcd_Cmd(0x30);
  3053     0A51  3030               	movlw	48
  3054     0A52  160A  118A  27CC  120A  158A  	fcall	_Lcd_Cmd
  3055                           
  3056                           ;C:/Users/Bryan Ortiz/Desktop/Digital2/Lab2D2.X/LCD8B.c: 45:     _delay((unsigned long)(
      +                          (4)*(8000000/4000.0)));
  3057     0A57  300B               	movlw	11
  3058     0A58  00F5               	movwf	??_Lcd_Init+1
  3059     0A59  3062               	movlw	98
  3060     0A5A  00F4               	movwf	??_Lcd_Init
  3061     0A5B                     u3447:
  3062     0A5B  0BF4               	decfsz	??_Lcd_Init,f
  3063     0A5C  2A5B               	goto	u3447
  3064     0A5D  0BF5               	decfsz	??_Lcd_Init+1,f
  3065     0A5E  2A5B               	goto	u3447
  3066     0A5F  0000               	nop
  3067     0A60                     l2058:
  3068                           
  3069                           ;C:/Users/Bryan Ortiz/Desktop/Digital2/Lab2D2.X/LCD8B.c: 46:     Lcd_Cmd(0x30);
  3070     0A60  3030               	movlw	48
  3071     0A61  160A  118A  27CC  120A  158A  	fcall	_Lcd_Cmd
  3072     0A66                     l2060:
  3073                           
  3074                           ;C:/Users/Bryan Ortiz/Desktop/Digital2/Lab2D2.X/LCD8B.c: 47:     _delay((unsigned long)(
      +                          (100)*(8000000/4000000.0)));
  3075     0A66  3042               	movlw	66
  3076     0A67  00F4               	movwf	??_Lcd_Init
  3077     0A68                     u3457:
  3078     0A68  0BF4               	decfsz	??_Lcd_Init,f
  3079     0A69  2A68               	goto	u3457
  3080     0A6A  0000               	nop
  3081                           
  3082                           ;C:/Users/Bryan Ortiz/Desktop/Digital2/Lab2D2.X/LCD8B.c: 48:     Lcd_Cmd(0x30);
  3083     0A6B  3030               	movlw	48
  3084     0A6C  160A  118A  27CC  120A  158A  	fcall	_Lcd_Cmd
  3085                           
  3086                           ;C:/Users/Bryan Ortiz/Desktop/Digital2/Lab2D2.X/LCD8B.c: 50:     Lcd_Cmd(0x38);
  3087     0A71  3038               	movlw	56
  3088     0A72  160A  118A  27CC  120A  158A  	fcall	_Lcd_Cmd
  3089                           
  3090                           ;C:/Users/Bryan Ortiz/Desktop/Digital2/Lab2D2.X/LCD8B.c: 51:     Lcd_Cmd(0x00);
  3091     0A77  3000               	movlw	0
  3092     0A78  160A  118A  27CC  120A  158A  	fcall	_Lcd_Cmd
  3093                           
  3094                           ;C:/Users/Bryan Ortiz/Desktop/Digital2/Lab2D2.X/LCD8B.c: 52:     Lcd_Cmd(0x0C);
  3095     0A7D  300C               	movlw	12
  3096     0A7E  160A  118A  27CC  120A  158A  	fcall	_Lcd_Cmd
  3097                           
  3098                           ;C:/Users/Bryan Ortiz/Desktop/Digital2/Lab2D2.X/LCD8B.c: 53:     Lcd_Cmd(0x00);
  3099     0A83  3000               	movlw	0
  3100     0A84  160A  118A  27CC  120A  158A  	fcall	_Lcd_Cmd
  3101                           
  3102                           ;C:/Users/Bryan Ortiz/Desktop/Digital2/Lab2D2.X/LCD8B.c: 54:     Lcd_Cmd(0x06);
  3103     0A89  3006               	movlw	6
  3104     0A8A  160A  118A  27CC  120A  158A  	fcall	_Lcd_Cmd
  3105     0A8F                     l173:
  3106     0A8F  0008               	return
  3107     0A90                     __end_of_Lcd_Init:
  3108                           
  3109                           	psect	text9
  3110     0C8A                     __ptext9:	
  3111 ;; *************** function _map *****************
  3112 ;; Defined at:
  3113 ;;		line 132 in file "C:/Users/Bryan Ortiz/Desktop/Digital2/Lab2D2.X/Lab2D2.c"
  3114 ;; Parameters:    Size  Location     Type
  3115 ;;  value           4    0[BANK1 ] float 
  3116 ;;  fromLow         4    4[BANK1 ] float 
  3117 ;;  fromHigh        4    8[BANK1 ] float 
  3118 ;;  toLow           4   12[BANK1 ] float 
  3119 ;;  toHigh          4   16[BANK1 ] float 
  3120 ;; Auto vars:     Size  Location     Type
  3121 ;;		None
  3122 ;; Return value:  Size  Location     Type
  3123 ;;                  4    0[BANK1 ] float 
  3124 ;; Registers used:
  3125 ;;		wreg, status,2, status,0, btemp+1, pclath, cstack
  3126 ;; Tracked objects:
  3127 ;;		On entry : 0/0
  3128 ;;		On exit  : 0/0
  3129 ;;		Unchanged: 0/0
  3130 ;; Data sizes:     COMMON   BANK0   BANK1   BANK3   BANK2
  3131 ;;      Params:         0       0      20       0       0
  3132 ;;      Locals:         0       4       0       0       0
  3133 ;;      Temps:          0       0       0       0       0
  3134 ;;      Totals:         0       4      20       0       0
  3135 ;;Total ram usage:       24 bytes
  3136 ;; Hardware stack levels used: 1
  3137 ;; Hardware stack levels required when called: 2
  3138 ;; This function calls:
  3139 ;;		___fladd
  3140 ;;		___fldiv
  3141 ;;		___flmul
  3142 ;;		___flsub
  3143 ;; This function is called by:
  3144 ;;		_main
  3145 ;; This function uses a non-reentrant model
  3146 ;;
  3147                           
  3148     0C8A                     _map:	
  3149                           ;psect for function _map
  3150                           
  3151     0C8A                     l2484:	
  3152                           ;incstack = 0
  3153                           ; Regs used in _map: [wreg+status,2+status,0+btemp+1+pclath+cstack]
  3154                           
  3155                           
  3156                           ;C:/Users/Bryan Ortiz/Desktop/Digital2/Lab2D2.X/Lab2D2.c: 133:     return (value - fromL
      +                          ow) * (toHigh - toLow) / (fromHigh - fromLow) + toLow;
  3157     0C8A  1683               	bsf	3,5	;RP0=1, select bank1
  3158     0C8B  1303               	bcf	3,6	;RP1=0, select bank1
  3159     0C8C  0827               	movf	(map@fromLow+3)^(0+128),w
  3160     0C8D  1283               	bcf	3,5	;RP0=0, select bank0
  3161     0C8E  1303               	bcf	3,6	;RP1=0, select bank0
  3162     0C8F  00B3               	movwf	___flsub@a+3
  3163     0C90  1683               	bsf	3,5	;RP0=1, select bank1
  3164     0C91  1303               	bcf	3,6	;RP1=0, select bank1
  3165     0C92  0826               	movf	(map@fromLow+2)^(0+128),w
  3166     0C93  1283               	bcf	3,5	;RP0=0, select bank0
  3167     0C94  1303               	bcf	3,6	;RP1=0, select bank0
  3168     0C95  00B2               	movwf	___flsub@a+2
  3169     0C96  1683               	bsf	3,5	;RP0=1, select bank1
  3170     0C97  1303               	bcf	3,6	;RP1=0, select bank1
  3171     0C98  0825               	movf	(map@fromLow+1)^(0+128),w
  3172     0C99  1283               	bcf	3,5	;RP0=0, select bank0
  3173     0C9A  1303               	bcf	3,6	;RP1=0, select bank0
  3174     0C9B  00B1               	movwf	___flsub@a+1
  3175     0C9C  1683               	bsf	3,5	;RP0=1, select bank1
  3176     0C9D  1303               	bcf	3,6	;RP1=0, select bank1
  3177     0C9E  0824               	movf	map@fromLow^(0+128),w
  3178     0C9F  1283               	bcf	3,5	;RP0=0, select bank0
  3179     0CA0  1303               	bcf	3,6	;RP1=0, select bank0
  3180     0CA1  00B0               	movwf	___flsub@a
  3181     0CA2  1683               	bsf	3,5	;RP0=1, select bank1
  3182     0CA3  1303               	bcf	3,6	;RP1=0, select bank1
  3183     0CA4  082B               	movf	(map@fromHigh+3)^(0+128),w
  3184     0CA5  1283               	bcf	3,5	;RP0=0, select bank0
  3185     0CA6  1303               	bcf	3,6	;RP1=0, select bank0
  3186     0CA7  00B7               	movwf	___flsub@b+3
  3187     0CA8  1683               	bsf	3,5	;RP0=1, select bank1
  3188     0CA9  1303               	bcf	3,6	;RP1=0, select bank1
  3189     0CAA  082A               	movf	(map@fromHigh+2)^(0+128),w
  3190     0CAB  1283               	bcf	3,5	;RP0=0, select bank0
  3191     0CAC  1303               	bcf	3,6	;RP1=0, select bank0
  3192     0CAD  00B6               	movwf	___flsub@b+2
  3193     0CAE  1683               	bsf	3,5	;RP0=1, select bank1
  3194     0CAF  1303               	bcf	3,6	;RP1=0, select bank1
  3195     0CB0  0829               	movf	(map@fromHigh+1)^(0+128),w
  3196     0CB1  1283               	bcf	3,5	;RP0=0, select bank0
  3197     0CB2  1303               	bcf	3,6	;RP1=0, select bank0
  3198     0CB3  00B5               	movwf	___flsub@b+1
  3199     0CB4  1683               	bsf	3,5	;RP0=1, select bank1
  3200     0CB5  1303               	bcf	3,6	;RP1=0, select bank1
  3201     0CB6  0828               	movf	map@fromHigh^(0+128),w
  3202     0CB7  1283               	bcf	3,5	;RP0=0, select bank0
  3203     0CB8  1303               	bcf	3,6	;RP1=0, select bank0
  3204     0CB9  00B4               	movwf	___flsub@b
  3205     0CBA  120A  158A  2100  120A  158A  	fcall	___flsub
  3206     0CBF  1283               	bcf	3,5	;RP0=0, select bank0
  3207     0CC0  1303               	bcf	3,6	;RP1=0, select bank0
  3208     0CC1  0833               	movf	?___flsub+3,w
  3209     0CC2  00D5               	movwf	___fldiv@a+3
  3210     0CC3  0832               	movf	?___flsub+2,w
  3211     0CC4  00D4               	movwf	___fldiv@a+2
  3212     0CC5  0831               	movf	?___flsub+1,w
  3213     0CC6  00D3               	movwf	___fldiv@a+1
  3214     0CC7  0830               	movf	?___flsub,w
  3215     0CC8  00D2               	movwf	___fldiv@a
  3216     0CC9  1683               	bsf	3,5	;RP0=1, select bank1
  3217     0CCA  1303               	bcf	3,6	;RP1=0, select bank1
  3218     0CCB  082F               	movf	(map@toLow+3)^(0+128),w
  3219     0CCC  1283               	bcf	3,5	;RP0=0, select bank0
  3220     0CCD  1303               	bcf	3,6	;RP1=0, select bank0
  3221     0CCE  00B3               	movwf	___flsub@a+3
  3222     0CCF  1683               	bsf	3,5	;RP0=1, select bank1
  3223     0CD0  1303               	bcf	3,6	;RP1=0, select bank1
  3224     0CD1  082E               	movf	(map@toLow+2)^(0+128),w
  3225     0CD2  1283               	bcf	3,5	;RP0=0, select bank0
  3226     0CD3  1303               	bcf	3,6	;RP1=0, select bank0
  3227     0CD4  00B2               	movwf	___flsub@a+2
  3228     0CD5  1683               	bsf	3,5	;RP0=1, select bank1
  3229     0CD6  1303               	bcf	3,6	;RP1=0, select bank1
  3230     0CD7  082D               	movf	(map@toLow+1)^(0+128),w
  3231     0CD8  1283               	bcf	3,5	;RP0=0, select bank0
  3232     0CD9  1303               	bcf	3,6	;RP1=0, select bank0
  3233     0CDA  00B1               	movwf	___flsub@a+1
  3234     0CDB  1683               	bsf	3,5	;RP0=1, select bank1
  3235     0CDC  1303               	bcf	3,6	;RP1=0, select bank1
  3236     0CDD  082C               	movf	map@toLow^(0+128),w
  3237     0CDE  1283               	bcf	3,5	;RP0=0, select bank0
  3238     0CDF  1303               	bcf	3,6	;RP1=0, select bank0
  3239     0CE0  00B0               	movwf	___flsub@a
  3240     0CE1  1683               	bsf	3,5	;RP0=1, select bank1
  3241     0CE2  1303               	bcf	3,6	;RP1=0, select bank1
  3242     0CE3  0833               	movf	(map@toHigh+3)^(0+128),w
  3243     0CE4  1283               	bcf	3,5	;RP0=0, select bank0
  3244     0CE5  1303               	bcf	3,6	;RP1=0, select bank0
  3245     0CE6  00B7               	movwf	___flsub@b+3
  3246     0CE7  1683               	bsf	3,5	;RP0=1, select bank1
  3247     0CE8  1303               	bcf	3,6	;RP1=0, select bank1
  3248     0CE9  0832               	movf	(map@toHigh+2)^(0+128),w
  3249     0CEA  1283               	bcf	3,5	;RP0=0, select bank0
  3250     0CEB  1303               	bcf	3,6	;RP1=0, select bank0
  3251     0CEC  00B6               	movwf	___flsub@b+2
  3252     0CED  1683               	bsf	3,5	;RP0=1, select bank1
  3253     0CEE  1303               	bcf	3,6	;RP1=0, select bank1
  3254     0CEF  0831               	movf	(map@toHigh+1)^(0+128),w
  3255     0CF0  1283               	bcf	3,5	;RP0=0, select bank0
  3256     0CF1  1303               	bcf	3,6	;RP1=0, select bank0
  3257     0CF2  00B5               	movwf	___flsub@b+1
  3258     0CF3  1683               	bsf	3,5	;RP0=1, select bank1
  3259     0CF4  1303               	bcf	3,6	;RP1=0, select bank1
  3260     0CF5  0830               	movf	map@toHigh^(0+128),w
  3261     0CF6  1283               	bcf	3,5	;RP0=0, select bank0
  3262     0CF7  1303               	bcf	3,6	;RP1=0, select bank0
  3263     0CF8  00B4               	movwf	___flsub@b
  3264     0CF9  120A  158A  2100  120A  158A  	fcall	___flsub
  3265     0CFE  1283               	bcf	3,5	;RP0=0, select bank0
  3266     0CFF  1303               	bcf	3,6	;RP1=0, select bank0
  3267     0D00  0833               	movf	?___flsub+3,w
  3268     0D01  00BB               	movwf	___flmul@b+3
  3269     0D02  0832               	movf	?___flsub+2,w
  3270     0D03  00BA               	movwf	___flmul@b+2
  3271     0D04  0831               	movf	?___flsub+1,w
  3272     0D05  00B9               	movwf	___flmul@b+1
  3273     0D06  0830               	movf	?___flsub,w
  3274     0D07  00B8               	movwf	___flmul@b
  3275     0D08  1683               	bsf	3,5	;RP0=1, select bank1
  3276     0D09  1303               	bcf	3,6	;RP1=0, select bank1
  3277     0D0A  0827               	movf	(map@fromLow+3)^(0+128),w
  3278     0D0B  1283               	bcf	3,5	;RP0=0, select bank0
  3279     0D0C  1303               	bcf	3,6	;RP1=0, select bank0
  3280     0D0D  00B3               	movwf	___flsub@a+3
  3281     0D0E  1683               	bsf	3,5	;RP0=1, select bank1
  3282     0D0F  1303               	bcf	3,6	;RP1=0, select bank1
  3283     0D10  0826               	movf	(map@fromLow+2)^(0+128),w
  3284     0D11  1283               	bcf	3,5	;RP0=0, select bank0
  3285     0D12  1303               	bcf	3,6	;RP1=0, select bank0
  3286     0D13  00B2               	movwf	___flsub@a+2
  3287     0D14  1683               	bsf	3,5	;RP0=1, select bank1
  3288     0D15  1303               	bcf	3,6	;RP1=0, select bank1
  3289     0D16  0825               	movf	(map@fromLow+1)^(0+128),w
  3290     0D17  1283               	bcf	3,5	;RP0=0, select bank0
  3291     0D18  1303               	bcf	3,6	;RP1=0, select bank0
  3292     0D19  00B1               	movwf	___flsub@a+1
  3293     0D1A  1683               	bsf	3,5	;RP0=1, select bank1
  3294     0D1B  1303               	bcf	3,6	;RP1=0, select bank1
  3295     0D1C  0824               	movf	map@fromLow^(0+128),w
  3296     0D1D  1283               	bcf	3,5	;RP0=0, select bank0
  3297     0D1E  1303               	bcf	3,6	;RP1=0, select bank0
  3298     0D1F  00B0               	movwf	___flsub@a
  3299     0D20  1683               	bsf	3,5	;RP0=1, select bank1
  3300     0D21  1303               	bcf	3,6	;RP1=0, select bank1
  3301     0D22  0823               	movf	(map@value+3)^(0+128),w
  3302     0D23  1283               	bcf	3,5	;RP0=0, select bank0
  3303     0D24  1303               	bcf	3,6	;RP1=0, select bank0
  3304     0D25  00B7               	movwf	___flsub@b+3
  3305     0D26  1683               	bsf	3,5	;RP0=1, select bank1
  3306     0D27  1303               	bcf	3,6	;RP1=0, select bank1
  3307     0D28  0822               	movf	(map@value+2)^(0+128),w
  3308     0D29  1283               	bcf	3,5	;RP0=0, select bank0
  3309     0D2A  1303               	bcf	3,6	;RP1=0, select bank0
  3310     0D2B  00B6               	movwf	___flsub@b+2
  3311     0D2C  1683               	bsf	3,5	;RP0=1, select bank1
  3312     0D2D  1303               	bcf	3,6	;RP1=0, select bank1
  3313     0D2E  0821               	movf	(map@value+1)^(0+128),w
  3314     0D2F  1283               	bcf	3,5	;RP0=0, select bank0
  3315     0D30  1303               	bcf	3,6	;RP1=0, select bank0
  3316     0D31  00B5               	movwf	___flsub@b+1
  3317     0D32  1683               	bsf	3,5	;RP0=1, select bank1
  3318     0D33  1303               	bcf	3,6	;RP1=0, select bank1
  3319     0D34  0820               	movf	map@value^(0+128),w
  3320     0D35  1283               	bcf	3,5	;RP0=0, select bank0
  3321     0D36  1303               	bcf	3,6	;RP1=0, select bank0
  3322     0D37  00B4               	movwf	___flsub@b
  3323     0D38  120A  158A  2100  120A  158A  	fcall	___flsub
  3324     0D3D  1283               	bcf	3,5	;RP0=0, select bank0
  3325     0D3E  1303               	bcf	3,6	;RP1=0, select bank0
  3326     0D3F  0833               	movf	?___flsub+3,w
  3327     0D40  00BF               	movwf	___flmul@a+3
  3328     0D41  0832               	movf	?___flsub+2,w
  3329     0D42  00BE               	movwf	___flmul@a+2
  3330     0D43  0831               	movf	?___flsub+1,w
  3331     0D44  00BD               	movwf	___flmul@a+1
  3332     0D45  0830               	movf	?___flsub,w
  3333     0D46  00BC               	movwf	___flmul@a
  3334     0D47  120A  118A  24AE  120A  158A  	fcall	___flmul
  3335     0D4C  1283               	bcf	3,5	;RP0=0, select bank0
  3336     0D4D  1303               	bcf	3,6	;RP1=0, select bank0
  3337     0D4E  083B               	movf	?___flmul+3,w
  3338     0D4F  00D9               	movwf	___fldiv@b+3
  3339     0D50  083A               	movf	?___flmul+2,w
  3340     0D51  00D8               	movwf	___fldiv@b+2
  3341     0D52  0839               	movf	?___flmul+1,w
  3342     0D53  00D7               	movwf	___fldiv@b+1
  3343     0D54  0838               	movf	?___flmul,w
  3344     0D55  00D6               	movwf	___fldiv@b
  3345     0D56  120A  118A  207B  120A  158A  	fcall	___fldiv
  3346     0D5B  1283               	bcf	3,5	;RP0=0, select bank0
  3347     0D5C  1303               	bcf	3,6	;RP1=0, select bank0
  3348     0D5D  0855               	movf	?___fldiv+3,w
  3349     0D5E  00EF               	movwf	_map$1292+3
  3350     0D5F  0854               	movf	?___fldiv+2,w
  3351     0D60  00EE               	movwf	_map$1292+2
  3352     0D61  0853               	movf	?___fldiv+1,w
  3353     0D62  00ED               	movwf	_map$1292+1
  3354     0D63  0852               	movf	?___fldiv,w
  3355     0D64  00EC               	movwf	_map$1292
  3356                           
  3357                           ;C:/Users/Bryan Ortiz/Desktop/Digital2/Lab2D2.X/Lab2D2.c: 133:     return (value - fromL
      +                          ow) * (toHigh - toLow) / (fromHigh - fromLow) + toLow;
  3358     0D65  1683               	bsf	3,5	;RP0=1, select bank1
  3359     0D66  1303               	bcf	3,6	;RP1=0, select bank1
  3360     0D67  082F               	movf	(map@toLow+3)^(0+128),w
  3361     0D68  1283               	bcf	3,5	;RP0=0, select bank0
  3362     0D69  1303               	bcf	3,6	;RP1=0, select bank0
  3363     0D6A  00A3               	movwf	___fladd@b+3
  3364     0D6B  1683               	bsf	3,5	;RP0=1, select bank1
  3365     0D6C  1303               	bcf	3,6	;RP1=0, select bank1
  3366     0D6D  082E               	movf	(map@toLow+2)^(0+128),w
  3367     0D6E  1283               	bcf	3,5	;RP0=0, select bank0
  3368     0D6F  1303               	bcf	3,6	;RP1=0, select bank0
  3369     0D70  00A2               	movwf	___fladd@b+2
  3370     0D71  1683               	bsf	3,5	;RP0=1, select bank1
  3371     0D72  1303               	bcf	3,6	;RP1=0, select bank1
  3372     0D73  082D               	movf	(map@toLow+1)^(0+128),w
  3373     0D74  1283               	bcf	3,5	;RP0=0, select bank0
  3374     0D75  1303               	bcf	3,6	;RP1=0, select bank0
  3375     0D76  00A1               	movwf	___fladd@b+1
  3376     0D77  1683               	bsf	3,5	;RP0=1, select bank1
  3377     0D78  1303               	bcf	3,6	;RP1=0, select bank1
  3378     0D79  082C               	movf	map@toLow^(0+128),w
  3379     0D7A  1283               	bcf	3,5	;RP0=0, select bank0
  3380     0D7B  1303               	bcf	3,6	;RP1=0, select bank0
  3381     0D7C  00A0               	movwf	___fladd@b
  3382     0D7D  086F               	movf	_map$1292+3,w
  3383     0D7E  00A7               	movwf	___fladd@a+3
  3384     0D7F  086E               	movf	_map$1292+2,w
  3385     0D80  00A6               	movwf	___fladd@a+2
  3386     0D81  086D               	movf	_map$1292+1,w
  3387     0D82  00A5               	movwf	___fladd@a+1
  3388     0D83  086C               	movf	_map$1292,w
  3389     0D84  00A4               	movwf	___fladd@a
  3390     0D85  120A  118A  224E  120A  158A  	fcall	___fladd
  3391     0D8A  1283               	bcf	3,5	;RP0=0, select bank0
  3392     0D8B  1303               	bcf	3,6	;RP1=0, select bank0
  3393     0D8C  0823               	movf	?___fladd+3,w
  3394     0D8D  1683               	bsf	3,5	;RP0=1, select bank1
  3395     0D8E  1303               	bcf	3,6	;RP1=0, select bank1
  3396     0D8F  00A3               	movwf	(?_map+3)^(0+128)
  3397     0D90  1283               	bcf	3,5	;RP0=0, select bank0
  3398     0D91  1303               	bcf	3,6	;RP1=0, select bank0
  3399     0D92  0822               	movf	?___fladd+2,w
  3400     0D93  1683               	bsf	3,5	;RP0=1, select bank1
  3401     0D94  1303               	bcf	3,6	;RP1=0, select bank1
  3402     0D95  00A2               	movwf	(?_map+2)^(0+128)
  3403     0D96  1283               	bcf	3,5	;RP0=0, select bank0
  3404     0D97  1303               	bcf	3,6	;RP1=0, select bank0
  3405     0D98  0821               	movf	?___fladd+1,w
  3406     0D99  1683               	bsf	3,5	;RP0=1, select bank1
  3407     0D9A  1303               	bcf	3,6	;RP1=0, select bank1
  3408     0D9B  00A1               	movwf	(?_map+1)^(0+128)
  3409     0D9C  1283               	bcf	3,5	;RP0=0, select bank0
  3410     0D9D  1303               	bcf	3,6	;RP1=0, select bank0
  3411     0D9E  0820               	movf	?___fladd,w
  3412     0D9F  1683               	bsf	3,5	;RP0=1, select bank1
  3413     0DA0  1303               	bcf	3,6	;RP1=0, select bank1
  3414     0DA1  00A0               	movwf	?_map^(0+128)
  3415     0DA2                     l147:
  3416     0DA2  0008               	return
  3417     0DA3                     __end_of_map:
  3418                           
  3419                           	psect	text10
  3420     0900                     __ptext10:	
  3421 ;; *************** function ___flsub *****************
  3422 ;; Defined at:
  3423 ;;		line 242 in file "C:\Program Files\Microchip\xc8\v2.40\pic\sources\c90\common\sprcadd.c"
  3424 ;; Parameters:    Size  Location     Type
  3425 ;;  a               4   16[BANK0 ] float 
  3426 ;;  b               4   20[BANK0 ] float 
  3427 ;; Auto vars:     Size  Location     Type
  3428 ;;		None
  3429 ;; Return value:  Size  Location     Type
  3430 ;;                  4   16[BANK0 ] float 
  3431 ;; Registers used:
  3432 ;;		wreg, status,2, status,0, btemp+1, pclath, cstack
  3433 ;; Tracked objects:
  3434 ;;		On entry : 0/0
  3435 ;;		On exit  : 0/0
  3436 ;;		Unchanged: 0/0
  3437 ;; Data sizes:     COMMON   BANK0   BANK1   BANK3   BANK2
  3438 ;;      Params:         0       8       0       0       0
  3439 ;;      Locals:         0       0       0       0       0
  3440 ;;      Temps:          0       0       0       0       0
  3441 ;;      Totals:         0       8       0       0       0
  3442 ;;Total ram usage:        8 bytes
  3443 ;; Hardware stack levels used: 1
  3444 ;; Hardware stack levels required when called: 1
  3445 ;; This function calls:
  3446 ;;		___fladd
  3447 ;; This function is called by:
  3448 ;;		_map
  3449 ;; This function uses a non-reentrant model
  3450 ;;
  3451                           
  3452     0900                     ___flsub:	
  3453                           ;psect for function ___flsub
  3454                           
  3455     0900                     l2134:	
  3456                           ;incstack = 0
  3457                           ; Regs used in ___flsub: [wreg+status,2+status,0+btemp+1+pclath+cstack]
  3458                           
  3459     0900  3080               	movlw	128
  3460     0901  1283               	bcf	3,5	;RP0=0, select bank0
  3461     0902  1303               	bcf	3,6	;RP1=0, select bank0
  3462     0903  06B3               	xorwf	___flsub@a+3,f
  3463     0904                     l2136:
  3464     0904  0837               	movf	___flsub@b+3,w
  3465     0905  00A3               	movwf	___fladd@b+3
  3466     0906  0836               	movf	___flsub@b+2,w
  3467     0907  00A2               	movwf	___fladd@b+2
  3468     0908  0835               	movf	___flsub@b+1,w
  3469     0909  00A1               	movwf	___fladd@b+1
  3470     090A  0834               	movf	___flsub@b,w
  3471     090B  00A0               	movwf	___fladd@b
  3472     090C  0833               	movf	___flsub@a+3,w
  3473     090D  00A7               	movwf	___fladd@a+3
  3474     090E  0832               	movf	___flsub@a+2,w
  3475     090F  00A6               	movwf	___fladd@a+2
  3476     0910  0831               	movf	___flsub@a+1,w
  3477     0911  00A5               	movwf	___fladd@a+1
  3478     0912  0830               	movf	___flsub@a,w
  3479     0913  00A4               	movwf	___fladd@a
  3480     0914  120A  118A  224E  120A  158A  	fcall	___fladd
  3481     0919  1283               	bcf	3,5	;RP0=0, select bank0
  3482     091A  1303               	bcf	3,6	;RP1=0, select bank0
  3483     091B  0823               	movf	?___fladd+3,w
  3484     091C  00B3               	movwf	?___flsub+3
  3485     091D  0822               	movf	?___fladd+2,w
  3486     091E  00B2               	movwf	?___flsub+2
  3487     091F  0821               	movf	?___fladd+1,w
  3488     0920  00B1               	movwf	?___flsub+1
  3489     0921  0820               	movf	?___fladd,w
  3490     0922  00B0               	movwf	?___flsub
  3491     0923                     l649:
  3492     0923  0008               	return
  3493     0924                     __end_of___flsub:
  3494                           
  3495                           	psect	text11
  3496     024E                     __ptext11:	
  3497 ;; *************** function ___fladd *****************
  3498 ;; Defined at:
  3499 ;;		line 10 in file "C:\Program Files\Microchip\xc8\v2.40\pic\sources\c90\common\sprcadd.c"
  3500 ;; Parameters:    Size  Location     Type
  3501 ;;  b               4    0[BANK0 ] float 
  3502 ;;  a               4    4[BANK0 ] float 
  3503 ;; Auto vars:     Size  Location     Type
  3504 ;;  grs             1   12[COMMON] unsigned char 
  3505 ;;  bexp            1   11[COMMON] unsigned char 
  3506 ;;  aexp            1   10[COMMON] unsigned char 
  3507 ;;  signs           1    9[COMMON] unsigned char 
  3508 ;; Return value:  Size  Location     Type
  3509 ;;                  4    0[BANK0 ] unsigned char 
  3510 ;; Registers used:
  3511 ;;		wreg, status,2, status,0, btemp+1
  3512 ;; Tracked objects:
  3513 ;;		On entry : 0/0
  3514 ;;		On exit  : 0/0
  3515 ;;		Unchanged: 0/0
  3516 ;; Data sizes:     COMMON   BANK0   BANK1   BANK3   BANK2
  3517 ;;      Params:         0       8       0       0       0
  3518 ;;      Locals:         4       0       0       0       0
  3519 ;;      Temps:          0       8       0       0       0
  3520 ;;      Totals:         4      16       0       0       0
  3521 ;;Total ram usage:       20 bytes
  3522 ;; Hardware stack levels used: 1
  3523 ;; This function calls:
  3524 ;;		Nothing
  3525 ;; This function is called by:
  3526 ;;		_map
  3527 ;;		___flsub
  3528 ;; This function uses a non-reentrant model
  3529 ;;
  3530                           
  3531     024E                     ___fladd:	
  3532                           ;psect for function ___fladd
  3533                           
  3534     024E                     l1812:	
  3535                           ;incstack = 0
  3536                           ; Regs used in ___fladd: [wreg+status,2+status,0+btemp+1]
  3537                           
  3538     024E  1283               	bcf	3,5	;RP0=0, select bank0
  3539     024F  1303               	bcf	3,6	;RP1=0, select bank0
  3540     0250  0823               	movf	___fladd@b+3,w
  3541     0251  3980               	andlw	128
  3542     0252  00F9               	movwf	___fladd@signs
  3543     0253                     l1814:
  3544     0253  0823               	movf	___fladd@b+3,w
  3545     0254  00A8               	movwf	??___fladd
  3546     0255  0728               	addwf	??___fladd,w
  3547     0256  00FB               	movwf	___fladd@bexp
  3548     0257                     l1816:
  3549     0257  1FA2               	btfss	___fladd@b+2,7
  3550     0258  2A5A               	goto	u1711
  3551     0259  2A5B               	goto	u1710
  3552     025A                     u1711:
  3553     025A  2A5C               	goto	l1820
  3554     025B                     u1710:
  3555     025B                     l1818:
  3556     025B  147B               	bsf	___fladd@bexp,0
  3557     025C                     l1820:
  3558     025C  087B               	movf	___fladd@bexp,w
  3559     025D  1903               	btfsc	3,2
  3560     025E  2A60               	goto	u1721
  3561     025F  2A61               	goto	u1720
  3562     0260                     u1721:
  3563     0260  2A71               	goto	l1830
  3564     0261                     u1720:
  3565     0261                     l1822:
  3566     0261  0A7B               	incf	___fladd@bexp,w
  3567     0262  1D03               	btfss	3,2
  3568     0263  2A65               	goto	u1731
  3569     0264  2A66               	goto	u1730
  3570     0265                     u1731:
  3571     0265  2A6E               	goto	l1826
  3572     0266                     u1730:
  3573     0266                     l1824:
  3574     0266  3000               	movlw	0
  3575     0267  00A3               	movwf	___fladd@b+3
  3576     0268  3000               	movlw	0
  3577     0269  00A2               	movwf	___fladd@b+2
  3578     026A  3000               	movlw	0
  3579     026B  00A1               	movwf	___fladd@b+1
  3580     026C  3000               	movlw	0
  3581     026D  00A0               	movwf	___fladd@b
  3582     026E                     l1826:
  3583     026E  17A2               	bsf	___fladd@b+2,7
  3584     026F                     l1828:
  3585     026F  01A3               	clrf	___fladd@b+3
  3586     0270  2A79               	goto	l1832
  3587     0271                     l1830:
  3588     0271  3000               	movlw	0
  3589     0272  00A3               	movwf	___fladd@b+3
  3590     0273  3000               	movlw	0
  3591     0274  00A2               	movwf	___fladd@b+2
  3592     0275  3000               	movlw	0
  3593     0276  00A1               	movwf	___fladd@b+1
  3594     0277  3000               	movlw	0
  3595     0278  00A0               	movwf	___fladd@b
  3596     0279                     l1832:
  3597     0279  0827               	movf	___fladd@a+3,w
  3598     027A  3980               	andlw	128
  3599     027B  00FA               	movwf	___fladd@aexp
  3600     027C                     l1834:
  3601     027C  087A               	movf	___fladd@aexp,w
  3602     027D  0679               	xorwf	___fladd@signs,w
  3603     027E  1903               	skipnz
  3604     027F  2A81               	goto	u1741
  3605     0280  2A82               	goto	u1740
  3606     0281                     u1741:
  3607     0281  2A83               	goto	l1838
  3608     0282                     u1740:
  3609     0282                     l1836:
  3610     0282  1779               	bsf	___fladd@signs,6
  3611     0283                     l1838:
  3612     0283  0827               	movf	___fladd@a+3,w
  3613     0284  00A8               	movwf	??___fladd
  3614     0285  0728               	addwf	??___fladd,w
  3615     0286  00FA               	movwf	___fladd@aexp
  3616     0287                     l1840:
  3617     0287  1FA6               	btfss	___fladd@a+2,7
  3618     0288  2A8A               	goto	u1751
  3619     0289  2A8B               	goto	u1750
  3620     028A                     u1751:
  3621     028A  2A8C               	goto	l1844
  3622     028B                     u1750:
  3623     028B                     l1842:
  3624     028B  147A               	bsf	___fladd@aexp,0
  3625     028C                     l1844:
  3626     028C  087A               	movf	___fladd@aexp,w
  3627     028D  1903               	btfsc	3,2
  3628     028E  2A90               	goto	u1761
  3629     028F  2A91               	goto	u1760
  3630     0290                     u1761:
  3631     0290  2AA1               	goto	l1854
  3632     0291                     u1760:
  3633     0291                     l1846:
  3634     0291  0A7A               	incf	___fladd@aexp,w
  3635     0292  1D03               	btfss	3,2
  3636     0293  2A95               	goto	u1771
  3637     0294  2A96               	goto	u1770
  3638     0295                     u1771:
  3639     0295  2A9E               	goto	l1850
  3640     0296                     u1770:
  3641     0296                     l1848:
  3642     0296  3000               	movlw	0
  3643     0297  00A7               	movwf	___fladd@a+3
  3644     0298  3000               	movlw	0
  3645     0299  00A6               	movwf	___fladd@a+2
  3646     029A  3000               	movlw	0
  3647     029B  00A5               	movwf	___fladd@a+1
  3648     029C  3000               	movlw	0
  3649     029D  00A4               	movwf	___fladd@a
  3650     029E                     l1850:
  3651     029E  17A6               	bsf	___fladd@a+2,7
  3652     029F                     l1852:
  3653     029F  01A7               	clrf	___fladd@a+3
  3654     02A0  2AA9               	goto	l603
  3655     02A1                     l1854:
  3656     02A1  3000               	movlw	0
  3657     02A2  00A7               	movwf	___fladd@a+3
  3658     02A3  3000               	movlw	0
  3659     02A4  00A6               	movwf	___fladd@a+2
  3660     02A5  3000               	movlw	0
  3661     02A6  00A5               	movwf	___fladd@a+1
  3662     02A7  3000               	movlw	0
  3663     02A8  00A4               	movwf	___fladd@a
  3664     02A9                     l603:
  3665     02A9  087B               	movf	___fladd@bexp,w
  3666     02AA  027A               	subwf	___fladd@aexp,w
  3667     02AB  1803               	skipnc
  3668     02AC  2AAE               	goto	u1781
  3669     02AD  2AAF               	goto	u1780
  3670     02AE                     u1781:
  3671     02AE  2AD5               	goto	l1890
  3672     02AF                     u1780:
  3673     02AF                     l1856:
  3674     02AF  1F79               	btfss	___fladd@signs,6
  3675     02B0  2AB2               	goto	u1791
  3676     02B1  2AB3               	goto	u1790
  3677     02B2                     u1791:
  3678     02B2  2AB7               	goto	l1860
  3679     02B3                     u1790:
  3680     02B3                     l1858:
  3681     02B3  3080               	movlw	128
  3682     02B4  00A8               	movwf	??___fladd
  3683     02B5  0828               	movf	??___fladd,w
  3684     02B6  06F9               	xorwf	___fladd@signs,f
  3685     02B7                     l1860:
  3686     02B7  087B               	movf	___fladd@bexp,w
  3687     02B8  00FC               	movwf	___fladd@grs
  3688     02B9                     l1862:
  3689     02B9  087A               	movf	___fladd@aexp,w
  3690     02BA  00FB               	movwf	___fladd@bexp
  3691     02BB                     l1864:
  3692     02BB  087C               	movf	___fladd@grs,w
  3693     02BC  00FA               	movwf	___fladd@aexp
  3694     02BD                     l1866:
  3695     02BD  0820               	movf	___fladd@b,w
  3696     02BE  00FC               	movwf	___fladd@grs
  3697     02BF                     l1868:
  3698     02BF  0824               	movf	___fladd@a,w
  3699     02C0  00A0               	movwf	___fladd@b
  3700     02C1                     l1870:
  3701     02C1  087C               	movf	___fladd@grs,w
  3702     02C2  00A4               	movwf	___fladd@a
  3703     02C3                     l1872:
  3704     02C3  0821               	movf	___fladd@b+1,w
  3705     02C4  00FC               	movwf	___fladd@grs
  3706     02C5                     l1874:
  3707     02C5  0825               	movf	___fladd@a+1,w
  3708     02C6  00A1               	movwf	___fladd@b+1
  3709     02C7                     l1876:
  3710     02C7  087C               	movf	___fladd@grs,w
  3711     02C8  00A5               	movwf	___fladd@a+1
  3712     02C9                     l1878:
  3713     02C9  0822               	movf	___fladd@b+2,w
  3714     02CA  00FC               	movwf	___fladd@grs
  3715     02CB                     l1880:
  3716     02CB  0826               	movf	___fladd@a+2,w
  3717     02CC  00A2               	movwf	___fladd@b+2
  3718     02CD                     l1882:
  3719     02CD  087C               	movf	___fladd@grs,w
  3720     02CE  00A6               	movwf	___fladd@a+2
  3721     02CF                     l1884:
  3722     02CF  0823               	movf	___fladd@b+3,w
  3723     02D0  00FC               	movwf	___fladd@grs
  3724     02D1                     l1886:
  3725     02D1  0827               	movf	___fladd@a+3,w
  3726     02D2  00A3               	movwf	___fladd@b+3
  3727     02D3                     l1888:
  3728     02D3  087C               	movf	___fladd@grs,w
  3729     02D4  00A7               	movwf	___fladd@a+3
  3730     02D5                     l1890:
  3731     02D5  01FC               	clrf	___fladd@grs
  3732     02D6                     l1892:
  3733     02D6  087A               	movf	___fladd@aexp,w
  3734     02D7  00A8               	movwf	??___fladd
  3735     02D8  01A9               	clrf	??___fladd+1
  3736     02D9  0829               	movf	??___fladd+1,w
  3737     02DA  00AB               	movwf	??___fladd+3
  3738     02DB  087B               	movf	___fladd@bexp,w
  3739     02DC  0228               	subwf	??___fladd,w
  3740     02DD  00AA               	movwf	??___fladd+2
  3741     02DE  1C03               	skipc
  3742     02DF  03AB               	decf	??___fladd+3,f
  3743     02E0  082B               	movf	??___fladd+3,w
  3744     02E1  3A80               	xorlw	128
  3745     02E2  00FF               	movwf	btemp+1
  3746     02E3  3080               	movlw	128
  3747     02E4  027F               	subwf	btemp+1,w
  3748     02E5  1D03               	skipz
  3749     02E6  2AE9               	goto	u1805
  3750     02E7  301A               	movlw	26
  3751     02E8  022A               	subwf	??___fladd+2,w
  3752     02E9                     u1805:
  3753     02E9  1C03               	skipc
  3754     02EA  2AEC               	goto	u1801
  3755     02EB  2AED               	goto	u1800
  3756     02EC                     u1801:
  3757     02EC  2B28               	goto	l1908
  3758     02ED                     u1800:
  3759     02ED                     l1894:
  3760     02ED  1283               	bcf	3,5	;RP0=0, select bank0
  3761     02EE  1303               	bcf	3,6	;RP1=0, select bank0
  3762     02EF  0823               	movf	___fladd@b+3,w
  3763     02F0  0422               	iorwf	___fladd@b+2,w
  3764     02F1  0421               	iorwf	___fladd@b+1,w
  3765     02F2  0420               	iorwf	___fladd@b,w
  3766     02F3  1D03               	skipz
  3767     02F4  2AF6               	goto	u1811
  3768     02F5  2AF8               	goto	u1810
  3769     02F6                     u1811:
  3770     02F6  3001               	movlw	1
  3771     02F7  2AF9               	goto	u1820
  3772     02F8                     u1810:
  3773     02F8  3000               	movlw	0
  3774     02F9                     u1820:
  3775     02F9  00FC               	movwf	___fladd@grs
  3776     02FA  3000               	movlw	0
  3777     02FB  00A3               	movwf	___fladd@b+3
  3778     02FC  3000               	movlw	0
  3779     02FD  00A2               	movwf	___fladd@b+2
  3780     02FE  3000               	movlw	0
  3781     02FF  00A1               	movwf	___fladd@b+1
  3782     0300  3000               	movlw	0
  3783     0301  00A0               	movwf	___fladd@b
  3784     0302  087A               	movf	___fladd@aexp,w
  3785     0303  00FB               	movwf	___fladd@bexp
  3786     0304  2B2E               	goto	l607
  3787     0305                     l609:
  3788     0305  1C7C               	btfss	___fladd@grs,0
  3789     0306  2B08               	goto	u1831
  3790     0307  2B09               	goto	u1830
  3791     0308                     u1831:
  3792     0308  2B12               	goto	l1898
  3793     0309                     u1830:
  3794     0309                     l1896:
  3795     0309  087C               	movf	___fladd@grs,w
  3796     030A  1283               	bcf	3,5	;RP0=0, select bank0
  3797     030B  1303               	bcf	3,6	;RP1=0, select bank0
  3798     030C  00A8               	movwf	??___fladd
  3799     030D  1003               	clrc
  3800     030E  0C28               	rrf	??___fladd,w
  3801     030F  3801               	iorlw	1
  3802     0310  00FC               	movwf	___fladd@grs
  3803     0311  2B14               	goto	l1900
  3804     0312                     l1898:
  3805     0312  1003               	clrc
  3806     0313  0CFC               	rrf	___fladd@grs,f
  3807     0314                     l1900:
  3808     0314  1283               	bcf	3,5	;RP0=0, select bank0
  3809     0315  1303               	bcf	3,6	;RP1=0, select bank0
  3810     0316  1C20               	btfss	___fladd@b,0
  3811     0317  2B19               	goto	u1841
  3812     0318  2B1A               	goto	u1840
  3813     0319                     u1841:
  3814     0319  2B1B               	goto	l1904
  3815     031A                     u1840:
  3816     031A                     l1902:
  3817     031A  17FC               	bsf	___fladd@grs,7
  3818     031B                     l1904:
  3819     031B  3001               	movlw	1
  3820     031C  00A8               	movwf	??___fladd
  3821     031D                     u1855:
  3822     031D  0D23               	rlf	___fladd@b+3,w
  3823     031E  0CA3               	rrf	___fladd@b+3,f
  3824     031F  0CA2               	rrf	___fladd@b+2,f
  3825     0320  0CA1               	rrf	___fladd@b+1,f
  3826     0321  0CA0               	rrf	___fladd@b,f
  3827     0322  0BA8               	decfsz	??___fladd& (0+127),f
  3828     0323  2B1D               	goto	u1855
  3829     0324                     l1906:
  3830     0324  3001               	movlw	1
  3831     0325  00A8               	movwf	??___fladd
  3832     0326  0828               	movf	??___fladd,w
  3833     0327  07FB               	addwf	___fladd@bexp,f
  3834     0328                     l1908:
  3835     0328  087A               	movf	___fladd@aexp,w
  3836     0329  027B               	subwf	___fladd@bexp,w
  3837     032A  1C03               	skipc
  3838     032B  2B2D               	goto	u1861
  3839     032C  2B2E               	goto	u1860
  3840     032D                     u1861:
  3841     032D  2B05               	goto	l609
  3842     032E                     u1860:
  3843     032E                     l607:
  3844     032E  1B79               	btfsc	___fladd@signs,6
  3845     032F  2B31               	goto	u1871
  3846     0330  2B32               	goto	u1870
  3847     0331                     u1871:
  3848     0331  2B7F               	goto	l1934
  3849     0332                     u1870:
  3850     0332                     l1910:
  3851     0332  087B               	movf	___fladd@bexp,w
  3852     0333  1D03               	btfss	3,2
  3853     0334  2B36               	goto	u1881
  3854     0335  2B37               	goto	u1880
  3855     0336                     u1881:
  3856     0336  2B42               	goto	l1916
  3857     0337                     u1880:
  3858     0337                     l1912:
  3859     0337  3000               	movlw	0
  3860     0338  1283               	bcf	3,5	;RP0=0, select bank0
  3861     0339  1303               	bcf	3,6	;RP1=0, select bank0
  3862     033A  00A3               	movwf	?___fladd+3
  3863     033B  3000               	movlw	0
  3864     033C  00A2               	movwf	?___fladd+2
  3865     033D  3000               	movlw	0
  3866     033E  00A1               	movwf	?___fladd+1
  3867     033F  3000               	movlw	0
  3868     0340  00A0               	movwf	?___fladd
  3869     0341  2CAD               	goto	l616
  3870     0342                     l1916:
  3871     0342  1283               	bcf	3,5	;RP0=0, select bank0
  3872     0343  1303               	bcf	3,6	;RP1=0, select bank0
  3873     0344  0824               	movf	___fladd@a,w
  3874     0345  07A0               	addwf	___fladd@b,f
  3875     0346  0825               	movf	___fladd@a+1,w
  3876     0347  1103               	clrz
  3877     0348  1803               	skipnc
  3878     0349  3E01               	addlw	1
  3879     034A  1903               	skipnz
  3880     034B  2B4D               	goto	u1891
  3881     034C  07A1               	addwf	___fladd@b+1,f
  3882     034D                     u1891:
  3883     034D  0826               	movf	___fladd@a+2,w
  3884     034E  1103               	clrz
  3885     034F  1803               	skipnc
  3886     0350  3E01               	addlw	1
  3887     0351  1903               	skipnz
  3888     0352  2B54               	goto	u1892
  3889     0353  07A2               	addwf	___fladd@b+2,f
  3890     0354                     u1892:
  3891     0354  0827               	movf	___fladd@a+3,w
  3892     0355  1103               	clrz
  3893     0356  1803               	skipnc
  3894     0357  3E01               	addlw	1
  3895     0358  1903               	skipnz
  3896     0359  2B5B               	goto	u1893
  3897     035A  07A3               	addwf	___fladd@b+3,f
  3898     035B                     u1893:
  3899     035B                     l1918:
  3900     035B  1C23               	btfss	___fladd@b+3,0
  3901     035C  2B5E               	goto	u1901
  3902     035D  2B5F               	goto	u1900
  3903     035E                     u1901:
  3904     035E  2C35               	goto	l1968
  3905     035F                     u1900:
  3906     035F                     l1920:
  3907     035F  1C7C               	btfss	___fladd@grs,0
  3908     0360  2B62               	goto	u1911
  3909     0361  2B63               	goto	u1910
  3910     0362                     u1911:
  3911     0362  2B6A               	goto	l1924
  3912     0363                     u1910:
  3913     0363                     l1922:
  3914     0363  087C               	movf	___fladd@grs,w
  3915     0364  00A8               	movwf	??___fladd
  3916     0365  1003               	clrc
  3917     0366  0C28               	rrf	??___fladd,w
  3918     0367  3801               	iorlw	1
  3919     0368  00FC               	movwf	___fladd@grs
  3920     0369  2B6C               	goto	l1926
  3921     036A                     l1924:
  3922     036A  1003               	clrc
  3923     036B  0CFC               	rrf	___fladd@grs,f
  3924     036C                     l1926:
  3925     036C  1C20               	btfss	___fladd@b,0
  3926     036D  2B6F               	goto	u1921
  3927     036E  2B70               	goto	u1920
  3928     036F                     u1921:
  3929     036F  2B71               	goto	l1930
  3930     0370                     u1920:
  3931     0370                     l1928:
  3932     0370  17FC               	bsf	___fladd@grs,7
  3933     0371                     l1930:
  3934     0371  3001               	movlw	1
  3935     0372  00A8               	movwf	??___fladd
  3936     0373                     u1935:
  3937     0373  0D23               	rlf	___fladd@b+3,w
  3938     0374  0CA3               	rrf	___fladd@b+3,f
  3939     0375  0CA2               	rrf	___fladd@b+2,f
  3940     0376  0CA1               	rrf	___fladd@b+1,f
  3941     0377  0CA0               	rrf	___fladd@b,f
  3942     0378  0BA8               	decfsz	??___fladd& (0+127),f
  3943     0379  2B73               	goto	u1935
  3944     037A                     l1932:
  3945     037A  3001               	movlw	1
  3946     037B  00A8               	movwf	??___fladd
  3947     037C  0828               	movf	??___fladd,w
  3948     037D  07FB               	addwf	___fladd@bexp,f
  3949     037E  2C35               	goto	l1968
  3950     037F                     l1934:
  3951     037F  1283               	bcf	3,5	;RP0=0, select bank0
  3952     0380  1303               	bcf	3,6	;RP1=0, select bank0
  3953     0381  0823               	movf	___fladd@b+3,w
  3954     0382  3A80               	xorlw	128
  3955     0383  00FF               	movwf	btemp+1
  3956     0384  0827               	movf	___fladd@a+3,w
  3957     0385  3A80               	xorlw	128
  3958     0386  027F               	subwf	btemp+1,w
  3959     0387  1D03               	skipz
  3960     0388  2B93               	goto	u1943
  3961     0389  0826               	movf	___fladd@a+2,w
  3962     038A  0222               	subwf	___fladd@b+2,w
  3963     038B  1D03               	skipz
  3964     038C  2B93               	goto	u1943
  3965     038D  0825               	movf	___fladd@a+1,w
  3966     038E  0221               	subwf	___fladd@b+1,w
  3967     038F  1D03               	skipz
  3968     0390  2B93               	goto	u1943
  3969     0391  0824               	movf	___fladd@a,w
  3970     0392  0220               	subwf	___fladd@b,w
  3971     0393                     u1943:
  3972     0393  1803               	skipnc
  3973     0394  2B96               	goto	u1941
  3974     0395  2B97               	goto	u1940
  3975     0396                     u1941:
  3976     0396  2BEF               	goto	l1944
  3977     0397                     u1940:
  3978     0397                     l1936:
  3979     0397  30FF               	movlw	255
  3980     0398  00A8               	movwf	??___fladd
  3981     0399  30FF               	movlw	255
  3982     039A  00A9               	movwf	??___fladd+1
  3983     039B  30FF               	movlw	255
  3984     039C  00AA               	movwf	??___fladd+2
  3985     039D  30FF               	movlw	255
  3986     039E  00AB               	movwf	??___fladd+3
  3987     039F  0824               	movf	___fladd@a,w
  3988     03A0  00AC               	movwf	??___fladd+4
  3989     03A1  0825               	movf	___fladd@a+1,w
  3990     03A2  00AD               	movwf	??___fladd+5
  3991     03A3  0826               	movf	___fladd@a+2,w
  3992     03A4  00AE               	movwf	??___fladd+6
  3993     03A5  0827               	movf	___fladd@a+3,w
  3994     03A6  00AF               	movwf	??___fladd+7
  3995     03A7  0820               	movf	___fladd@b,w
  3996     03A8  02AC               	subwf	??___fladd+4,f
  3997     03A9  0821               	movf	___fladd@b+1,w
  3998     03AA  1C03               	skipc
  3999     03AB  0F21               	incfsz	___fladd@b+1,w
  4000     03AC  2BAE               	goto	u1951
  4001     03AD  2BAF               	goto	u1952
  4002     03AE                     u1951:
  4003     03AE  02AD               	subwf	??___fladd+5,f
  4004     03AF                     u1952:
  4005     03AF  0822               	movf	___fladd@b+2,w
  4006     03B0  1C03               	skipc
  4007     03B1  0F22               	incfsz	___fladd@b+2,w
  4008     03B2  2BB4               	goto	u1953
  4009     03B3  2BB5               	goto	u1954
  4010     03B4                     u1953:
  4011     03B4  02AE               	subwf	??___fladd+6,f
  4012     03B5                     u1954:
  4013     03B5  0823               	movf	___fladd@b+3,w
  4014     03B6  1C03               	skipc
  4015     03B7  0F23               	incfsz	___fladd@b+3,w
  4016     03B8  2BBA               	goto	u1955
  4017     03B9  2BBB               	goto	u1956
  4018     03BA                     u1955:
  4019     03BA  02AF               	subwf	??___fladd+7,f
  4020     03BB                     u1956:
  4021     03BB  082C               	movf	??___fladd+4,w
  4022     03BC  07A8               	addwf	??___fladd,f
  4023     03BD  082D               	movf	??___fladd+5,w
  4024     03BE  1803               	skipnc
  4025     03BF  0F2D               	incfsz	??___fladd+5,w
  4026     03C0  2BC2               	goto	u1960
  4027     03C1  2BC3               	goto	u1961
  4028     03C2                     u1960:
  4029     03C2  07A9               	addwf	??___fladd+1,f
  4030     03C3                     u1961:
  4031     03C3  082E               	movf	??___fladd+6,w
  4032     03C4  1803               	skipnc
  4033     03C5  0F2E               	incfsz	??___fladd+6,w
  4034     03C6  2BC8               	goto	u1962
  4035     03C7  2BC9               	goto	u1963
  4036     03C8                     u1962:
  4037     03C8  07AA               	addwf	??___fladd+2,f
  4038     03C9                     u1963:
  4039     03C9  082F               	movf	??___fladd+7,w
  4040     03CA  1803               	skipnc
  4041     03CB  0A2F               	incf	??___fladd+7,w
  4042     03CC  07AB               	addwf	??___fladd+3,f
  4043     03CD  082B               	movf	??___fladd+3,w
  4044     03CE  00A3               	movwf	___fladd@b+3
  4045     03CF  082A               	movf	??___fladd+2,w
  4046     03D0  00A2               	movwf	___fladd@b+2
  4047     03D1  0829               	movf	??___fladd+1,w
  4048     03D2  00A1               	movwf	___fladd@b+1
  4049     03D3  0828               	movf	??___fladd,w
  4050     03D4  00A0               	movwf	___fladd@b
  4051     03D5                     l1938:
  4052     03D5  3080               	movlw	128
  4053     03D6  00A8               	movwf	??___fladd
  4054     03D7  0828               	movf	??___fladd,w
  4055     03D8  06F9               	xorwf	___fladd@signs,f
  4056     03D9  09FC               	comf	___fladd@grs,f
  4057     03DA  0AFC               	incf	___fladd@grs,f
  4058     03DB                     l1940:
  4059     03DB  087C               	movf	___fladd@grs,w
  4060     03DC  1D03               	btfss	3,2
  4061     03DD  2BDF               	goto	u1971
  4062     03DE  2BE0               	goto	u1970
  4063     03DF                     u1971:
  4064     03DF  2BFD               	goto	l624
  4065     03E0                     u1970:
  4066     03E0                     l1942:
  4067     03E0  3001               	movlw	1
  4068     03E1  07A0               	addwf	___fladd@b,f
  4069     03E2  3000               	movlw	0
  4070     03E3  1803               	skipnc
  4071     03E4  3001               	movlw	1
  4072     03E5  07A1               	addwf	___fladd@b+1,f
  4073     03E6  3000               	movlw	0
  4074     03E7  1803               	skipnc
  4075     03E8  3001               	movlw	1
  4076     03E9  07A2               	addwf	___fladd@b+2,f
  4077     03EA  3000               	movlw	0
  4078     03EB  1803               	skipnc
  4079     03EC  3001               	movlw	1
  4080     03ED  07A3               	addwf	___fladd@b+3,f
  4081     03EE  2BFD               	goto	l624
  4082     03EF                     l1944:
  4083     03EF  0824               	movf	___fladd@a,w
  4084     03F0  02A0               	subwf	___fladd@b,f
  4085     03F1  0825               	movf	___fladd@a+1,w
  4086     03F2  1C03               	skipc
  4087     03F3  0F25               	incfsz	___fladd@a+1,w
  4088     03F4  02A1               	subwf	___fladd@b+1,f
  4089     03F5  0826               	movf	___fladd@a+2,w
  4090     03F6  1C03               	skipc
  4091     03F7  0F26               	incfsz	___fladd@a+2,w
  4092     03F8  02A2               	subwf	___fladd@b+2,f
  4093     03F9  0827               	movf	___fladd@a+3,w
  4094     03FA  1C03               	skipc
  4095     03FB  0F27               	incfsz	___fladd@a+3,w
  4096     03FC  02A3               	subwf	___fladd@b+3,f
  4097     03FD                     l624:
  4098     03FD  0823               	movf	___fladd@b+3,w
  4099     03FE  0422               	iorwf	___fladd@b+2,w
  4100     03FF  0421               	iorwf	___fladd@b+1,w
  4101     0400  0420               	iorwf	___fladd@b,w
  4102     0401  1D03               	skipz
  4103     0402  2C04               	goto	u1981
  4104     0403  2C05               	goto	u1980
  4105     0404                     u1981:
  4106     0404  2C31               	goto	l1966
  4107     0405                     u1980:
  4108     0405                     l1946:
  4109     0405  087C               	movf	___fladd@grs,w
  4110     0406  1D03               	btfss	3,2
  4111     0407  2C09               	goto	u1991
  4112     0408  2C0A               	goto	u1990
  4113     0409                     u1991:
  4114     0409  2C31               	goto	l1966
  4115     040A                     u1990:
  4116     040A                     l1948:
  4117     040A  3000               	movlw	0
  4118     040B  00A3               	movwf	?___fladd+3
  4119     040C  3000               	movlw	0
  4120     040D  00A2               	movwf	?___fladd+2
  4121     040E  3000               	movlw	0
  4122     040F  00A1               	movwf	?___fladd+1
  4123     0410  3000               	movlw	0
  4124     0411  00A0               	movwf	?___fladd
  4125     0412  2CAD               	goto	l616
  4126     0413                     l1952:
  4127     0413  3001               	movlw	1
  4128     0414  00A8               	movwf	??___fladd
  4129     0415                     u2005:
  4130     0415  1003               	clrc
  4131     0416  0DA0               	rlf	___fladd@b,f
  4132     0417  0DA1               	rlf	___fladd@b+1,f
  4133     0418  0DA2               	rlf	___fladd@b+2,f
  4134     0419  0DA3               	rlf	___fladd@b+3,f
  4135     041A  0BA8               	decfsz	??___fladd,f
  4136     041B  2C15               	goto	u2005
  4137     041C                     l1954:
  4138     041C  1FFC               	btfss	___fladd@grs,7
  4139     041D  2C1F               	goto	u2011
  4140     041E  2C20               	goto	u2010
  4141     041F                     u2011:
  4142     041F  2C21               	goto	l628
  4143     0420                     u2010:
  4144     0420                     l1956:
  4145     0420  1420               	bsf	___fladd@b,0
  4146     0421                     l628:
  4147     0421  1C7C               	btfss	___fladd@grs,0
  4148     0422  2C24               	goto	u2021
  4149     0423  2C25               	goto	u2020
  4150     0424                     u2021:
  4151     0424  2C28               	goto	l1960
  4152     0425                     u2020:
  4153     0425                     l1958:
  4154     0425  1403               	setc
  4155     0426  0DFC               	rlf	___fladd@grs,f
  4156     0427  2C2A               	goto	l1962
  4157     0428                     l1960:
  4158     0428  1003               	clrc
  4159     0429  0DFC               	rlf	___fladd@grs,f
  4160     042A                     l1962:
  4161     042A  087B               	movf	___fladd@bexp,w
  4162     042B  1903               	btfsc	3,2
  4163     042C  2C2E               	goto	u2031
  4164     042D  2C2F               	goto	u2030
  4165     042E                     u2031:
  4166     042E  2C31               	goto	l1966
  4167     042F                     u2030:
  4168     042F                     l1964:
  4169     042F  3001               	movlw	1
  4170     0430  02FB               	subwf	___fladd@bexp,f
  4171     0431                     l1966:
  4172     0431  1FA2               	btfss	___fladd@b+2,7
  4173     0432  2C34               	goto	u2041
  4174     0433  2C35               	goto	u2040
  4175     0434                     u2041:
  4176     0434  2C13               	goto	l1952
  4177     0435                     u2040:
  4178     0435                     l1968:
  4179     0435  01FA               	clrf	___fladd@aexp
  4180     0436                     l1970:
  4181     0436  1FFC               	btfss	___fladd@grs,7
  4182     0437  2C39               	goto	u2051
  4183     0438  2C3A               	goto	u2050
  4184     0439                     u2051:
  4185     0439  2C48               	goto	l1978
  4186     043A                     u2050:
  4187     043A                     l1972:
  4188     043A  087C               	movf	___fladd@grs,w
  4189     043B  397F               	andlw	127
  4190     043C  1903               	btfsc	3,2
  4191     043D  2C3F               	goto	u2061
  4192     043E  2C40               	goto	u2060
  4193     043F                     u2061:
  4194     043F  2C43               	goto	l634
  4195     0440                     u2060:
  4196     0440                     l1974:
  4197     0440  01FA               	clrf	___fladd@aexp
  4198     0441  0AFA               	incf	___fladd@aexp,f
  4199     0442  2C48               	goto	l1978
  4200     0443                     l634:
  4201     0443  1C20               	btfss	___fladd@b,0
  4202     0444  2C46               	goto	u2071
  4203     0445  2C47               	goto	u2070
  4204     0446                     u2071:
  4205     0446  2C48               	goto	l1978
  4206     0447                     u2070:
  4207     0447  2C40               	goto	l1974
  4208     0448                     l1978:
  4209     0448  087A               	movf	___fladd@aexp,w
  4210     0449  1903               	btfsc	3,2
  4211     044A  2C4C               	goto	u2081
  4212     044B  2C4D               	goto	u2080
  4213     044C                     u2081:
  4214     044C  2C81               	goto	l637
  4215     044D                     u2080:
  4216     044D                     l1980:
  4217     044D  3001               	movlw	1
  4218     044E  07A0               	addwf	___fladd@b,f
  4219     044F  3000               	movlw	0
  4220     0450  1803               	skipnc
  4221     0451  3001               	movlw	1
  4222     0452  07A1               	addwf	___fladd@b+1,f
  4223     0453  3000               	movlw	0
  4224     0454  1803               	skipnc
  4225     0455  3001               	movlw	1
  4226     0456  07A2               	addwf	___fladd@b+2,f
  4227     0457  3000               	movlw	0
  4228     0458  1803               	skipnc
  4229     0459  3001               	movlw	1
  4230     045A  07A3               	addwf	___fladd@b+3,f
  4231     045B                     l1982:
  4232     045B  1C23               	btfss	___fladd@b+3,0
  4233     045C  2C5E               	goto	u2091
  4234     045D  2C5F               	goto	u2090
  4235     045E                     u2091:
  4236     045E  2C81               	goto	l637
  4237     045F                     u2090:
  4238     045F                     l1984:
  4239     045F  0820               	movf	___fladd@b,w
  4240     0460  00A8               	movwf	??___fladd
  4241     0461  0821               	movf	___fladd@b+1,w
  4242     0462  00A9               	movwf	??___fladd+1
  4243     0463  0822               	movf	___fladd@b+2,w
  4244     0464  00AA               	movwf	??___fladd+2
  4245     0465  0823               	movf	___fladd@b+3,w
  4246     0466  00AB               	movwf	??___fladd+3
  4247     0467  3001               	movlw	1
  4248     0468  00AC               	movwf	??___fladd+4
  4249     0469                     u2105:
  4250     0469  0D2B               	rlf	??___fladd+3,w
  4251     046A  0CAB               	rrf	??___fladd+3,f
  4252     046B  0CAA               	rrf	??___fladd+2,f
  4253     046C  0CA9               	rrf	??___fladd+1,f
  4254     046D  0CA8               	rrf	??___fladd,f
  4255     046E                     u2100:
  4256     046E  0BAC               	decfsz	??___fladd+4,f
  4257     046F  2C69               	goto	u2105
  4258     0470  082B               	movf	??___fladd+3,w
  4259     0471  00A3               	movwf	___fladd@b+3
  4260     0472  082A               	movf	??___fladd+2,w
  4261     0473  00A2               	movwf	___fladd@b+2
  4262     0474  0829               	movf	??___fladd+1,w
  4263     0475  00A1               	movwf	___fladd@b+1
  4264     0476  0828               	movf	??___fladd,w
  4265     0477  00A0               	movwf	___fladd@b
  4266     0478  0A7B               	incf	___fladd@bexp,w
  4267     0479  1903               	btfsc	3,2
  4268     047A  2C7C               	goto	u2111
  4269     047B  2C7D               	goto	u2110
  4270     047C                     u2111:
  4271     047C  2C81               	goto	l637
  4272     047D                     u2110:
  4273     047D                     l1986:
  4274     047D  3001               	movlw	1
  4275     047E  00A8               	movwf	??___fladd
  4276     047F  0828               	movf	??___fladd,w
  4277     0480  07FB               	addwf	___fladd@bexp,f
  4278     0481                     l637:
  4279     0481  0A7B               	incf	___fladd@bexp,w
  4280     0482  1903               	btfsc	3,2
  4281     0483  2C85               	goto	u2121
  4282     0484  2C86               	goto	u2120
  4283     0485                     u2121:
  4284     0485  2C8B               	goto	l1990
  4285     0486                     u2120:
  4286     0486                     l1988:
  4287     0486  087B               	movf	___fladd@bexp,w
  4288     0487  1D03               	btfss	3,2
  4289     0488  2C8A               	goto	u2131
  4290     0489  2C8B               	goto	u2130
  4291     048A                     u2131:
  4292     048A  2C99               	goto	l1996
  4293     048B                     u2130:
  4294     048B                     l1990:
  4295     048B  3000               	movlw	0
  4296     048C  00A3               	movwf	___fladd@b+3
  4297     048D  3000               	movlw	0
  4298     048E  00A2               	movwf	___fladd@b+2
  4299     048F  3000               	movlw	0
  4300     0490  00A1               	movwf	___fladd@b+1
  4301     0491  3000               	movlw	0
  4302     0492  00A0               	movwf	___fladd@b
  4303     0493                     l1992:
  4304     0493  087B               	movf	___fladd@bexp,w
  4305     0494  1D03               	btfss	3,2
  4306     0495  2C97               	goto	u2141
  4307     0496  2C98               	goto	u2140
  4308     0497                     u2141:
  4309     0497  2C99               	goto	l1996
  4310     0498                     u2140:
  4311     0498                     l1994:
  4312     0498  01F9               	clrf	___fladd@signs
  4313     0499                     l1996:
  4314     0499  1C7B               	btfss	___fladd@bexp,0
  4315     049A  2C9C               	goto	u2151
  4316     049B  2C9D               	goto	u2150
  4317     049C                     u2151:
  4318     049C  2C9F               	goto	l2000
  4319     049D                     u2150:
  4320     049D                     l1998:
  4321     049D  17A2               	bsf	___fladd@b+2,7
  4322     049E  2CA3               	goto	l645
  4323     049F                     l2000:
  4324     049F  307F               	movlw	127
  4325     04A0  00A8               	movwf	??___fladd
  4326     04A1  0828               	movf	??___fladd,w
  4327     04A2  05A2               	andwf	___fladd@b+2,f
  4328     04A3                     l645:
  4329     04A3  087B               	movf	___fladd@bexp,w
  4330     04A4  00A8               	movwf	??___fladd
  4331     04A5  1003               	clrc
  4332     04A6  0C28               	rrf	??___fladd,w
  4333     04A7  00A3               	movwf	___fladd@b+3
  4334     04A8                     l2002:
  4335     04A8  1FF9               	btfss	___fladd@signs,7
  4336     04A9  2CAB               	goto	u2161
  4337     04AA  2CAC               	goto	u2160
  4338     04AB                     u2161:
  4339     04AB  2CAD               	goto	l646
  4340     04AC                     u2160:
  4341     04AC                     l2004:
  4342     04AC  17A3               	bsf	___fladd@b+3,7
  4343     04AD                     l646:
  4344     04AD                     l616:
  4345     04AD  0008               	return
  4346     04AE                     __end_of___fladd:
  4347                           
  4348                           	psect	text12
  4349     04AE                     __ptext12:	
  4350 ;; *************** function ___flmul *****************
  4351 ;; Defined at:
  4352 ;;		line 8 in file "C:\Program Files\Microchip\xc8\v2.40\pic\sources\c90\common\sprcmul.c"
  4353 ;; Parameters:    Size  Location     Type
  4354 ;;  b               4   24[BANK0 ] unsigned char 
  4355 ;;  a               4   28[BANK0 ] unsigned char 
  4356 ;; Auto vars:     Size  Location     Type
  4357 ;;  prod            4   44[BANK0 ] struct .
  4358 ;;  grs             4   38[BANK0 ] unsigned long 
  4359 ;;  temp            2   48[BANK0 ] struct .
  4360 ;;  bexp            1   43[BANK0 ] unsigned char 
  4361 ;;  aexp            1   42[BANK0 ] unsigned char 
  4362 ;;  sign            1   37[BANK0 ] unsigned char 
  4363 ;; Return value:  Size  Location     Type
  4364 ;;                  4   24[BANK0 ] unsigned char 
  4365 ;; Registers used:
  4366 ;;		wreg, status,2, status,0, btemp+1, pclath, cstack
  4367 ;; Tracked objects:
  4368 ;;		On entry : 0/0
  4369 ;;		On exit  : 0/0
  4370 ;;		Unchanged: 0/0
  4371 ;; Data sizes:     COMMON   BANK0   BANK1   BANK3   BANK2
  4372 ;;      Params:         0       8       0       0       0
  4373 ;;      Locals:         0      13       0       0       0
  4374 ;;      Temps:          0       5       0       0       0
  4375 ;;      Totals:         0      26       0       0       0
  4376 ;;Total ram usage:       26 bytes
  4377 ;; Hardware stack levels used: 1
  4378 ;; Hardware stack levels required when called: 1
  4379 ;; This function calls:
  4380 ;;		__Umul8_16
  4381 ;; This function is called by:
  4382 ;;		_map
  4383 ;; This function uses a non-reentrant model
  4384 ;;
  4385                           
  4386     04AE                     ___flmul:	
  4387                           ;psect for function ___flmul
  4388                           
  4389     04AE                     l2282:	
  4390                           ;incstack = 0
  4391                           ; Regs used in ___flmul: [wreg+status,2+status,0+btemp+1+pclath+cstack]
  4392                           
  4393     04AE  1283               	bcf	3,5	;RP0=0, select bank0
  4394     04AF  1303               	bcf	3,6	;RP1=0, select bank0
  4395     04B0  083B               	movf	___flmul@b+3,w
  4396     04B1  3980               	andlw	128
  4397     04B2  00C5               	movwf	___flmul@sign
  4398     04B3                     l2284:
  4399     04B3  083B               	movf	___flmul@b+3,w
  4400     04B4  00C0               	movwf	??___flmul
  4401     04B5  0740               	addwf	??___flmul,w
  4402     04B6  00CB               	movwf	___flmul@bexp
  4403     04B7                     l2286:
  4404     04B7  1FBA               	btfss	___flmul@b+2,7
  4405     04B8  2CBA               	goto	u2641
  4406     04B9  2CBB               	goto	u2640
  4407     04BA                     u2641:
  4408     04BA  2CBC               	goto	l2290
  4409     04BB                     u2640:
  4410     04BB                     l2288:
  4411     04BB  144B               	bsf	___flmul@bexp,0
  4412     04BC                     l2290:
  4413     04BC  084B               	movf	___flmul@bexp,w
  4414     04BD  1903               	btfsc	3,2
  4415     04BE  2CC0               	goto	u2651
  4416     04BF  2CC1               	goto	u2650
  4417     04C0                     u2651:
  4418     04C0  2CD0               	goto	l2298
  4419     04C1                     u2650:
  4420     04C1                     l2292:
  4421     04C1  0A4B               	incf	___flmul@bexp,w
  4422     04C2  1D03               	btfss	3,2
  4423     04C3  2CC5               	goto	u2661
  4424     04C4  2CC6               	goto	u2660
  4425     04C5                     u2661:
  4426     04C5  2CCE               	goto	l2296
  4427     04C6                     u2660:
  4428     04C6                     l2294:
  4429     04C6  3000               	movlw	0
  4430     04C7  00BB               	movwf	___flmul@b+3
  4431     04C8  3000               	movlw	0
  4432     04C9  00BA               	movwf	___flmul@b+2
  4433     04CA  3000               	movlw	0
  4434     04CB  00B9               	movwf	___flmul@b+1
  4435     04CC  3000               	movlw	0
  4436     04CD  00B8               	movwf	___flmul@b
  4437     04CE                     l2296:
  4438     04CE  17BA               	bsf	___flmul@b+2,7
  4439     04CF  2CD8               	goto	l2300
  4440     04D0                     l2298:
  4441     04D0  3000               	movlw	0
  4442     04D1  00BB               	movwf	___flmul@b+3
  4443     04D2  3000               	movlw	0
  4444     04D3  00BA               	movwf	___flmul@b+2
  4445     04D4  3000               	movlw	0
  4446     04D5  00B9               	movwf	___flmul@b+1
  4447     04D6  3000               	movlw	0
  4448     04D7  00B8               	movwf	___flmul@b
  4449     04D8                     l2300:
  4450     04D8  083F               	movf	___flmul@a+3,w
  4451     04D9  3980               	andlw	128
  4452     04DA  00C0               	movwf	??___flmul
  4453     04DB  0840               	movf	??___flmul,w
  4454     04DC  06C5               	xorwf	___flmul@sign,f
  4455     04DD                     l2302:
  4456     04DD  083F               	movf	___flmul@a+3,w
  4457     04DE  00C0               	movwf	??___flmul
  4458     04DF  0740               	addwf	??___flmul,w
  4459     04E0  00CA               	movwf	___flmul@aexp
  4460     04E1                     l2304:
  4461     04E1  1FBE               	btfss	___flmul@a+2,7
  4462     04E2  2CE4               	goto	u2671
  4463     04E3  2CE5               	goto	u2670
  4464     04E4                     u2671:
  4465     04E4  2CE6               	goto	l2308
  4466     04E5                     u2670:
  4467     04E5                     l2306:
  4468     04E5  144A               	bsf	___flmul@aexp,0
  4469     04E6                     l2308:
  4470     04E6  084A               	movf	___flmul@aexp,w
  4471     04E7  1903               	btfsc	3,2
  4472     04E8  2CEA               	goto	u2681
  4473     04E9  2CEB               	goto	u2680
  4474     04EA                     u2681:
  4475     04EA  2CFA               	goto	l2316
  4476     04EB                     u2680:
  4477     04EB                     l2310:
  4478     04EB  0A4A               	incf	___flmul@aexp,w
  4479     04EC  1D03               	btfss	3,2
  4480     04ED  2CEF               	goto	u2691
  4481     04EE  2CF0               	goto	u2690
  4482     04EF                     u2691:
  4483     04EF  2CF8               	goto	l2314
  4484     04F0                     u2690:
  4485     04F0                     l2312:
  4486     04F0  3000               	movlw	0
  4487     04F1  00BF               	movwf	___flmul@a+3
  4488     04F2  3000               	movlw	0
  4489     04F3  00BE               	movwf	___flmul@a+2
  4490     04F4  3000               	movlw	0
  4491     04F5  00BD               	movwf	___flmul@a+1
  4492     04F6  3000               	movlw	0
  4493     04F7  00BC               	movwf	___flmul@a
  4494     04F8                     l2314:
  4495     04F8  17BE               	bsf	___flmul@a+2,7
  4496     04F9  2D02               	goto	l2318
  4497     04FA                     l2316:
  4498     04FA  3000               	movlw	0
  4499     04FB  00BF               	movwf	___flmul@a+3
  4500     04FC  3000               	movlw	0
  4501     04FD  00BE               	movwf	___flmul@a+2
  4502     04FE  3000               	movlw	0
  4503     04FF  00BD               	movwf	___flmul@a+1
  4504     0500  3000               	movlw	0
  4505     0501  00BC               	movwf	___flmul@a
  4506     0502                     l2318:
  4507     0502  084A               	movf	___flmul@aexp,w
  4508     0503  1903               	btfsc	3,2
  4509     0504  2D06               	goto	u2701
  4510     0505  2D07               	goto	u2700
  4511     0506                     u2701:
  4512     0506  2D0C               	goto	l2322
  4513     0507                     u2700:
  4514     0507                     l2320:
  4515     0507  084B               	movf	___flmul@bexp,w
  4516     0508  1D03               	btfss	3,2
  4517     0509  2D0B               	goto	u2711
  4518     050A  2D0C               	goto	u2710
  4519     050B                     u2711:
  4520     050B  2D15               	goto	l2326
  4521     050C                     u2710:
  4522     050C                     l2322:
  4523     050C  3000               	movlw	0
  4524     050D  00BB               	movwf	?___flmul+3
  4525     050E  3000               	movlw	0
  4526     050F  00BA               	movwf	?___flmul+2
  4527     0510  3000               	movlw	0
  4528     0511  00B9               	movwf	?___flmul+1
  4529     0512  3000               	movlw	0
  4530     0513  00B8               	movwf	?___flmul
  4531     0514  2FF2               	goto	l699
  4532     0515                     l2326:
  4533     0515  0838               	movf	___flmul@b,w
  4534     0516  00F0               	movwf	__Umul8_16@multiplicand
  4535     0517  083E               	movf	___flmul@a+2,w
  4536     0518  120A  158A  216F  120A  118A  	fcall	__Umul8_16
  4537     051D  0871               	movf	?__Umul8_16+1,w
  4538     051E  1283               	bcf	3,5	;RP0=0, select bank0
  4539     051F  1303               	bcf	3,6	;RP1=0, select bank0
  4540     0520  00D1               	movwf	___flmul@temp+1
  4541     0521  0870               	movf	?__Umul8_16,w
  4542     0522  00D0               	movwf	___flmul@temp
  4543     0523                     l2328:
  4544     0523  0850               	movf	___flmul@temp,w
  4545     0524  00C0               	movwf	??___flmul
  4546     0525  01C1               	clrf	??___flmul+1
  4547     0526  01C2               	clrf	??___flmul+2
  4548     0527  01C3               	clrf	??___flmul+3
  4549     0528  0843               	movf	??___flmul+3,w
  4550     0529  00C9               	movwf	___flmul@grs+3
  4551     052A  0842               	movf	??___flmul+2,w
  4552     052B  00C8               	movwf	___flmul@grs+2
  4553     052C  0841               	movf	??___flmul+1,w
  4554     052D  00C7               	movwf	___flmul@grs+1
  4555     052E  0840               	movf	??___flmul,w
  4556     052F  00C6               	movwf	___flmul@grs
  4557     0530                     l2330:
  4558     0530  0851               	movf	___flmul@temp+1,w
  4559     0531  00C0               	movwf	??___flmul
  4560     0532  01C1               	clrf	??___flmul+1
  4561     0533  01C2               	clrf	??___flmul+2
  4562     0534  01C3               	clrf	??___flmul+3
  4563     0535  0843               	movf	??___flmul+3,w
  4564     0536  00CF               	movwf	___flmul@prod+3
  4565     0537  0842               	movf	??___flmul+2,w
  4566     0538  00CE               	movwf	___flmul@prod+2
  4567     0539  0841               	movf	??___flmul+1,w
  4568     053A  00CD               	movwf	___flmul@prod+1
  4569     053B  0840               	movf	??___flmul,w
  4570     053C  00CC               	movwf	___flmul@prod
  4571     053D  0839               	movf	___flmul@b+1,w
  4572     053E  00F0               	movwf	__Umul8_16@multiplicand
  4573     053F  083D               	movf	___flmul@a+1,w
  4574     0540  120A  158A  216F  120A  118A  	fcall	__Umul8_16
  4575     0545  0871               	movf	?__Umul8_16+1,w
  4576     0546  1283               	bcf	3,5	;RP0=0, select bank0
  4577     0547  1303               	bcf	3,6	;RP1=0, select bank0
  4578     0548  00D1               	movwf	___flmul@temp+1
  4579     0549  0870               	movf	?__Umul8_16,w
  4580     054A  00D0               	movwf	___flmul@temp
  4581     054B                     l2332:
  4582     054B  0850               	movf	___flmul@temp,w
  4583     054C  00C0               	movwf	??___flmul
  4584     054D  01C1               	clrf	??___flmul+1
  4585     054E  01C2               	clrf	??___flmul+2
  4586     054F  01C3               	clrf	??___flmul+3
  4587     0550  0840               	movf	??___flmul,w
  4588     0551  07C6               	addwf	___flmul@grs,f
  4589     0552  0841               	movf	??___flmul+1,w
  4590     0553  1103               	clrz
  4591     0554  1803               	skipnc
  4592     0555  3E01               	addlw	1
  4593     0556  1903               	skipnz
  4594     0557  2D59               	goto	u2721
  4595     0558  07C7               	addwf	___flmul@grs+1,f
  4596     0559                     u2721:
  4597     0559  0842               	movf	??___flmul+2,w
  4598     055A  1103               	clrz
  4599     055B  1803               	skipnc
  4600     055C  3E01               	addlw	1
  4601     055D  1903               	skipnz
  4602     055E  2D60               	goto	u2722
  4603     055F  07C8               	addwf	___flmul@grs+2,f
  4604     0560                     u2722:
  4605     0560  0843               	movf	??___flmul+3,w
  4606     0561  1103               	clrz
  4607     0562  1803               	skipnc
  4608     0563  3E01               	addlw	1
  4609     0564  1903               	skipnz
  4610     0565  2D67               	goto	u2723
  4611     0566  07C9               	addwf	___flmul@grs+3,f
  4612     0567                     u2723:
  4613     0567                     l2334:
  4614     0567  0851               	movf	___flmul@temp+1,w
  4615     0568  00C0               	movwf	??___flmul
  4616     0569  01C1               	clrf	??___flmul+1
  4617     056A  01C2               	clrf	??___flmul+2
  4618     056B  01C3               	clrf	??___flmul+3
  4619     056C  0840               	movf	??___flmul,w
  4620     056D  07CC               	addwf	___flmul@prod,f
  4621     056E  0841               	movf	??___flmul+1,w
  4622     056F  1103               	clrz
  4623     0570  1803               	skipnc
  4624     0571  3E01               	addlw	1
  4625     0572  1903               	skipnz
  4626     0573  2D75               	goto	u2731
  4627     0574  07CD               	addwf	___flmul@prod+1,f
  4628     0575                     u2731:
  4629     0575  0842               	movf	??___flmul+2,w
  4630     0576  1103               	clrz
  4631     0577  1803               	skipnc
  4632     0578  3E01               	addlw	1
  4633     0579  1903               	skipnz
  4634     057A  2D7C               	goto	u2732
  4635     057B  07CE               	addwf	___flmul@prod+2,f
  4636     057C                     u2732:
  4637     057C  0843               	movf	??___flmul+3,w
  4638     057D  1103               	clrz
  4639     057E  1803               	skipnc
  4640     057F  3E01               	addlw	1
  4641     0580  1903               	skipnz
  4642     0581  2D83               	goto	u2733
  4643     0582  07CF               	addwf	___flmul@prod+3,f
  4644     0583                     u2733:
  4645     0583  083A               	movf	___flmul@b+2,w
  4646     0584  00F0               	movwf	__Umul8_16@multiplicand
  4647     0585  083C               	movf	___flmul@a,w
  4648     0586  120A  158A  216F  120A  118A  	fcall	__Umul8_16
  4649     058B  0871               	movf	?__Umul8_16+1,w
  4650     058C  1283               	bcf	3,5	;RP0=0, select bank0
  4651     058D  1303               	bcf	3,6	;RP1=0, select bank0
  4652     058E  00D1               	movwf	___flmul@temp+1
  4653     058F  0870               	movf	?__Umul8_16,w
  4654     0590  00D0               	movwf	___flmul@temp
  4655     0591                     l2336:
  4656     0591  0850               	movf	___flmul@temp,w
  4657     0592  00C0               	movwf	??___flmul
  4658     0593  01C1               	clrf	??___flmul+1
  4659     0594  01C2               	clrf	??___flmul+2
  4660     0595  01C3               	clrf	??___flmul+3
  4661     0596  0840               	movf	??___flmul,w
  4662     0597  07C6               	addwf	___flmul@grs,f
  4663     0598  0841               	movf	??___flmul+1,w
  4664     0599  1103               	clrz
  4665     059A  1803               	skipnc
  4666     059B  3E01               	addlw	1
  4667     059C  1903               	skipnz
  4668     059D  2D9F               	goto	u2741
  4669     059E  07C7               	addwf	___flmul@grs+1,f
  4670     059F                     u2741:
  4671     059F  0842               	movf	??___flmul+2,w
  4672     05A0  1103               	clrz
  4673     05A1  1803               	skipnc
  4674     05A2  3E01               	addlw	1
  4675     05A3  1903               	skipnz
  4676     05A4  2DA6               	goto	u2742
  4677     05A5  07C8               	addwf	___flmul@grs+2,f
  4678     05A6                     u2742:
  4679     05A6  0843               	movf	??___flmul+3,w
  4680     05A7  1103               	clrz
  4681     05A8  1803               	skipnc
  4682     05A9  3E01               	addlw	1
  4683     05AA  1903               	skipnz
  4684     05AB  2DAD               	goto	u2743
  4685     05AC  07C9               	addwf	___flmul@grs+3,f
  4686     05AD                     u2743:
  4687     05AD                     l2338:
  4688     05AD  0851               	movf	___flmul@temp+1,w
  4689     05AE  00C0               	movwf	??___flmul
  4690     05AF  01C1               	clrf	??___flmul+1
  4691     05B0  01C2               	clrf	??___flmul+2
  4692     05B1  01C3               	clrf	??___flmul+3
  4693     05B2  0840               	movf	??___flmul,w
  4694     05B3  07CC               	addwf	___flmul@prod,f
  4695     05B4  0841               	movf	??___flmul+1,w
  4696     05B5  1103               	clrz
  4697     05B6  1803               	skipnc
  4698     05B7  3E01               	addlw	1
  4699     05B8  1903               	skipnz
  4700     05B9  2DBB               	goto	u2751
  4701     05BA  07CD               	addwf	___flmul@prod+1,f
  4702     05BB                     u2751:
  4703     05BB  0842               	movf	??___flmul+2,w
  4704     05BC  1103               	clrz
  4705     05BD  1803               	skipnc
  4706     05BE  3E01               	addlw	1
  4707     05BF  1903               	skipnz
  4708     05C0  2DC2               	goto	u2752
  4709     05C1  07CE               	addwf	___flmul@prod+2,f
  4710     05C2                     u2752:
  4711     05C2  0843               	movf	??___flmul+3,w
  4712     05C3  1103               	clrz
  4713     05C4  1803               	skipnc
  4714     05C5  3E01               	addlw	1
  4715     05C6  1903               	skipnz
  4716     05C7  2DC9               	goto	u2753
  4717     05C8  07CF               	addwf	___flmul@prod+3,f
  4718     05C9                     u2753:
  4719     05C9                     l2340:
  4720     05C9  3008               	movlw	8
  4721     05CA  00C0               	movwf	??___flmul
  4722     05CB                     u2765:
  4723     05CB  1003               	clrc
  4724     05CC  0DC6               	rlf	___flmul@grs,f
  4725     05CD  0DC7               	rlf	___flmul@grs+1,f
  4726     05CE  0DC8               	rlf	___flmul@grs+2,f
  4727     05CF  0DC9               	rlf	___flmul@grs+3,f
  4728     05D0  0BC0               	decfsz	??___flmul,f
  4729     05D1  2DCB               	goto	u2765
  4730     05D2                     l2342:
  4731     05D2  0839               	movf	___flmul@b+1,w
  4732     05D3  00F0               	movwf	__Umul8_16@multiplicand
  4733     05D4  083C               	movf	___flmul@a,w
  4734     05D5  120A  158A  216F  120A  118A  	fcall	__Umul8_16
  4735     05DA  0871               	movf	?__Umul8_16+1,w
  4736     05DB  1283               	bcf	3,5	;RP0=0, select bank0
  4737     05DC  1303               	bcf	3,6	;RP1=0, select bank0
  4738     05DD  00D1               	movwf	___flmul@temp+1
  4739     05DE  0870               	movf	?__Umul8_16,w
  4740     05DF  00D0               	movwf	___flmul@temp
  4741     05E0                     l2344:
  4742     05E0  0850               	movf	___flmul@temp,w
  4743     05E1  00C0               	movwf	??___flmul
  4744     05E2  0851               	movf	___flmul@temp+1,w
  4745     05E3  00C1               	movwf	??___flmul+1
  4746     05E4  01C2               	clrf	??___flmul+2
  4747     05E5  01C3               	clrf	??___flmul+3
  4748     05E6  0840               	movf	??___flmul,w
  4749     05E7  07C6               	addwf	___flmul@grs,f
  4750     05E8  0841               	movf	??___flmul+1,w
  4751     05E9  1103               	clrz
  4752     05EA  1803               	skipnc
  4753     05EB  3E01               	addlw	1
  4754     05EC  1903               	skipnz
  4755     05ED  2DEF               	goto	u2771
  4756     05EE  07C7               	addwf	___flmul@grs+1,f
  4757     05EF                     u2771:
  4758     05EF  0842               	movf	??___flmul+2,w
  4759     05F0  1103               	clrz
  4760     05F1  1803               	skipnc
  4761     05F2  3E01               	addlw	1
  4762     05F3  1903               	skipnz
  4763     05F4  2DF6               	goto	u2772
  4764     05F5  07C8               	addwf	___flmul@grs+2,f
  4765     05F6                     u2772:
  4766     05F6  0843               	movf	??___flmul+3,w
  4767     05F7  1103               	clrz
  4768     05F8  1803               	skipnc
  4769     05F9  3E01               	addlw	1
  4770     05FA  1903               	skipnz
  4771     05FB  2DFD               	goto	u2773
  4772     05FC  07C9               	addwf	___flmul@grs+3,f
  4773     05FD                     u2773:
  4774     05FD                     l2346:
  4775     05FD  0838               	movf	___flmul@b,w
  4776     05FE  00F0               	movwf	__Umul8_16@multiplicand
  4777     05FF  083D               	movf	___flmul@a+1,w
  4778     0600  120A  158A  216F  120A  118A  	fcall	__Umul8_16
  4779     0605  0871               	movf	?__Umul8_16+1,w
  4780     0606  1283               	bcf	3,5	;RP0=0, select bank0
  4781     0607  1303               	bcf	3,6	;RP1=0, select bank0
  4782     0608  00D1               	movwf	___flmul@temp+1
  4783     0609  0870               	movf	?__Umul8_16,w
  4784     060A  00D0               	movwf	___flmul@temp
  4785     060B                     l2348:
  4786     060B  0850               	movf	___flmul@temp,w
  4787     060C  00C0               	movwf	??___flmul
  4788     060D  0851               	movf	___flmul@temp+1,w
  4789     060E  00C1               	movwf	??___flmul+1
  4790     060F  01C2               	clrf	??___flmul+2
  4791     0610  01C3               	clrf	??___flmul+3
  4792     0611  0840               	movf	??___flmul,w
  4793     0612  07C6               	addwf	___flmul@grs,f
  4794     0613  0841               	movf	??___flmul+1,w
  4795     0614  1103               	clrz
  4796     0615  1803               	skipnc
  4797     0616  3E01               	addlw	1
  4798     0617  1903               	skipnz
  4799     0618  2E1A               	goto	u2781
  4800     0619  07C7               	addwf	___flmul@grs+1,f
  4801     061A                     u2781:
  4802     061A  0842               	movf	??___flmul+2,w
  4803     061B  1103               	clrz
  4804     061C  1803               	skipnc
  4805     061D  3E01               	addlw	1
  4806     061E  1903               	skipnz
  4807     061F  2E21               	goto	u2782
  4808     0620  07C8               	addwf	___flmul@grs+2,f
  4809     0621                     u2782:
  4810     0621  0843               	movf	??___flmul+3,w
  4811     0622  1103               	clrz
  4812     0623  1803               	skipnc
  4813     0624  3E01               	addlw	1
  4814     0625  1903               	skipnz
  4815     0626  2E28               	goto	u2783
  4816     0627  07C9               	addwf	___flmul@grs+3,f
  4817     0628                     u2783:
  4818     0628                     l2350:
  4819     0628  3008               	movlw	8
  4820     0629  00C0               	movwf	??___flmul
  4821     062A                     u2795:
  4822     062A  1003               	clrc
  4823     062B  0DC6               	rlf	___flmul@grs,f
  4824     062C  0DC7               	rlf	___flmul@grs+1,f
  4825     062D  0DC8               	rlf	___flmul@grs+2,f
  4826     062E  0DC9               	rlf	___flmul@grs+3,f
  4827     062F  0BC0               	decfsz	??___flmul,f
  4828     0630  2E2A               	goto	u2795
  4829     0631  0838               	movf	___flmul@b,w
  4830     0632  00F0               	movwf	__Umul8_16@multiplicand
  4831     0633  083C               	movf	___flmul@a,w
  4832     0634  120A  158A  216F  120A  118A  	fcall	__Umul8_16
  4833     0639  0871               	movf	?__Umul8_16+1,w
  4834     063A  1283               	bcf	3,5	;RP0=0, select bank0
  4835     063B  1303               	bcf	3,6	;RP1=0, select bank0
  4836     063C  00D1               	movwf	___flmul@temp+1
  4837     063D  0870               	movf	?__Umul8_16,w
  4838     063E  00D0               	movwf	___flmul@temp
  4839     063F                     l2352:
  4840     063F  0850               	movf	___flmul@temp,w
  4841     0640  00C0               	movwf	??___flmul
  4842     0641  0851               	movf	___flmul@temp+1,w
  4843     0642  00C1               	movwf	??___flmul+1
  4844     0643  01C2               	clrf	??___flmul+2
  4845     0644  01C3               	clrf	??___flmul+3
  4846     0645  0840               	movf	??___flmul,w
  4847     0646  07C6               	addwf	___flmul@grs,f
  4848     0647  0841               	movf	??___flmul+1,w
  4849     0648  1103               	clrz
  4850     0649  1803               	skipnc
  4851     064A  3E01               	addlw	1
  4852     064B  1903               	skipnz
  4853     064C  2E4E               	goto	u2801
  4854     064D  07C7               	addwf	___flmul@grs+1,f
  4855     064E                     u2801:
  4856     064E  0842               	movf	??___flmul+2,w
  4857     064F  1103               	clrz
  4858     0650  1803               	skipnc
  4859     0651  3E01               	addlw	1
  4860     0652  1903               	skipnz
  4861     0653  2E55               	goto	u2802
  4862     0654  07C8               	addwf	___flmul@grs+2,f
  4863     0655                     u2802:
  4864     0655  0843               	movf	??___flmul+3,w
  4865     0656  1103               	clrz
  4866     0657  1803               	skipnc
  4867     0658  3E01               	addlw	1
  4868     0659  1903               	skipnz
  4869     065A  2E5C               	goto	u2803
  4870     065B  07C9               	addwf	___flmul@grs+3,f
  4871     065C                     u2803:
  4872     065C                     l2354:
  4873     065C  0839               	movf	___flmul@b+1,w
  4874     065D  00F0               	movwf	__Umul8_16@multiplicand
  4875     065E  083E               	movf	___flmul@a+2,w
  4876     065F  120A  158A  216F  120A  118A  	fcall	__Umul8_16
  4877     0664  0871               	movf	?__Umul8_16+1,w
  4878     0665  1283               	bcf	3,5	;RP0=0, select bank0
  4879     0666  1303               	bcf	3,6	;RP1=0, select bank0
  4880     0667  00D1               	movwf	___flmul@temp+1
  4881     0668  0870               	movf	?__Umul8_16,w
  4882     0669  00D0               	movwf	___flmul@temp
  4883     066A  0850               	movf	___flmul@temp,w
  4884     066B  00C0               	movwf	??___flmul
  4885     066C  0851               	movf	___flmul@temp+1,w
  4886     066D  00C1               	movwf	??___flmul+1
  4887     066E  01C2               	clrf	??___flmul+2
  4888     066F  01C3               	clrf	??___flmul+3
  4889     0670  0840               	movf	??___flmul,w
  4890     0671  07CC               	addwf	___flmul@prod,f
  4891     0672  0841               	movf	??___flmul+1,w
  4892     0673  1103               	clrz
  4893     0674  1803               	skipnc
  4894     0675  3E01               	addlw	1
  4895     0676  1903               	skipnz
  4896     0677  2E79               	goto	u2811
  4897     0678  07CD               	addwf	___flmul@prod+1,f
  4898     0679                     u2811:
  4899     0679  0842               	movf	??___flmul+2,w
  4900     067A  1103               	clrz
  4901     067B  1803               	skipnc
  4902     067C  3E01               	addlw	1
  4903     067D  1903               	skipnz
  4904     067E  2E80               	goto	u2812
  4905     067F  07CE               	addwf	___flmul@prod+2,f
  4906     0680                     u2812:
  4907     0680  0843               	movf	??___flmul+3,w
  4908     0681  1103               	clrz
  4909     0682  1803               	skipnc
  4910     0683  3E01               	addlw	1
  4911     0684  1903               	skipnz
  4912     0685  2E87               	goto	u2813
  4913     0686  07CF               	addwf	___flmul@prod+3,f
  4914     0687                     u2813:
  4915     0687                     l2356:
  4916     0687  083A               	movf	___flmul@b+2,w
  4917     0688  00F0               	movwf	__Umul8_16@multiplicand
  4918     0689  083D               	movf	___flmul@a+1,w
  4919     068A  120A  158A  216F  120A  118A  	fcall	__Umul8_16
  4920     068F  0871               	movf	?__Umul8_16+1,w
  4921     0690  1283               	bcf	3,5	;RP0=0, select bank0
  4922     0691  1303               	bcf	3,6	;RP1=0, select bank0
  4923     0692  00D1               	movwf	___flmul@temp+1
  4924     0693  0870               	movf	?__Umul8_16,w
  4925     0694  00D0               	movwf	___flmul@temp
  4926     0695                     l2358:
  4927     0695  0850               	movf	___flmul@temp,w
  4928     0696  00C0               	movwf	??___flmul
  4929     0697  0851               	movf	___flmul@temp+1,w
  4930     0698  00C1               	movwf	??___flmul+1
  4931     0699  01C2               	clrf	??___flmul+2
  4932     069A  01C3               	clrf	??___flmul+3
  4933     069B  0840               	movf	??___flmul,w
  4934     069C  07CC               	addwf	___flmul@prod,f
  4935     069D  0841               	movf	??___flmul+1,w
  4936     069E  1103               	clrz
  4937     069F  1803               	skipnc
  4938     06A0  3E01               	addlw	1
  4939     06A1  1903               	skipnz
  4940     06A2  2EA4               	goto	u2821
  4941     06A3  07CD               	addwf	___flmul@prod+1,f
  4942     06A4                     u2821:
  4943     06A4  0842               	movf	??___flmul+2,w
  4944     06A5  1103               	clrz
  4945     06A6  1803               	skipnc
  4946     06A7  3E01               	addlw	1
  4947     06A8  1903               	skipnz
  4948     06A9  2EAB               	goto	u2822
  4949     06AA  07CE               	addwf	___flmul@prod+2,f
  4950     06AB                     u2822:
  4951     06AB  0843               	movf	??___flmul+3,w
  4952     06AC  1103               	clrz
  4953     06AD  1803               	skipnc
  4954     06AE  3E01               	addlw	1
  4955     06AF  1903               	skipnz
  4956     06B0  2EB2               	goto	u2823
  4957     06B1  07CF               	addwf	___flmul@prod+3,f
  4958     06B2                     u2823:
  4959     06B2  083A               	movf	___flmul@b+2,w
  4960     06B3  00F0               	movwf	__Umul8_16@multiplicand
  4961     06B4  083E               	movf	___flmul@a+2,w
  4962     06B5  120A  158A  216F  120A  118A  	fcall	__Umul8_16
  4963     06BA  0871               	movf	?__Umul8_16+1,w
  4964     06BB  1283               	bcf	3,5	;RP0=0, select bank0
  4965     06BC  1303               	bcf	3,6	;RP1=0, select bank0
  4966     06BD  00D1               	movwf	___flmul@temp+1
  4967     06BE  0870               	movf	?__Umul8_16,w
  4968     06BF  00D0               	movwf	___flmul@temp
  4969     06C0                     l2360:
  4970     06C0  0850               	movf	___flmul@temp,w
  4971     06C1  00C0               	movwf	??___flmul
  4972     06C2  0851               	movf	___flmul@temp+1,w
  4973     06C3  00C1               	movwf	??___flmul+1
  4974     06C4  01C2               	clrf	??___flmul+2
  4975     06C5  01C3               	clrf	??___flmul+3
  4976     06C6  3008               	movlw	8
  4977     06C7                     u2835:
  4978     06C7  1003               	clrc
  4979     06C8  0DC0               	rlf	??___flmul,f
  4980     06C9  0DC1               	rlf	??___flmul+1,f
  4981     06CA  0DC2               	rlf	??___flmul+2,f
  4982     06CB  0DC3               	rlf	??___flmul+3,f
  4983     06CC                     u2830:
  4984     06CC  3EFF               	addlw	-1
  4985     06CD  1D03               	skipz
  4986     06CE  2EC7               	goto	u2835
  4987     06CF  0840               	movf	??___flmul,w
  4988     06D0  07CC               	addwf	___flmul@prod,f
  4989     06D1  0841               	movf	??___flmul+1,w
  4990     06D2  1103               	clrz
  4991     06D3  1803               	skipnc
  4992     06D4  3E01               	addlw	1
  4993     06D5  1903               	skipnz
  4994     06D6  2ED8               	goto	u2841
  4995     06D7  07CD               	addwf	___flmul@prod+1,f
  4996     06D8                     u2841:
  4997     06D8  0842               	movf	??___flmul+2,w
  4998     06D9  1103               	clrz
  4999     06DA  1803               	skipnc
  5000     06DB  3E01               	addlw	1
  5001     06DC  1903               	skipnz
  5002     06DD  2EDF               	goto	u2842
  5003     06DE  07CE               	addwf	___flmul@prod+2,f
  5004     06DF                     u2842:
  5005     06DF  0843               	movf	??___flmul+3,w
  5006     06E0  1103               	clrz
  5007     06E1  1803               	skipnc
  5008     06E2  3E01               	addlw	1
  5009     06E3  1903               	skipnz
  5010     06E4  2EE6               	goto	u2843
  5011     06E5  07CF               	addwf	___flmul@prod+3,f
  5012     06E6                     u2843:
  5013     06E6                     l2362:
  5014     06E6  0846               	movf	___flmul@grs,w
  5015     06E7  00C0               	movwf	??___flmul
  5016     06E8  0847               	movf	___flmul@grs+1,w
  5017     06E9  00C1               	movwf	??___flmul+1
  5018     06EA  0848               	movf	___flmul@grs+2,w
  5019     06EB  00C2               	movwf	??___flmul+2
  5020     06EC  0849               	movf	___flmul@grs+3,w
  5021     06ED  00C3               	movwf	??___flmul+3
  5022     06EE  3018               	movlw	24
  5023     06EF                     u2855:
  5024     06EF  1003               	clrc
  5025     06F0  0CC3               	rrf	??___flmul+3,f
  5026     06F1  0CC2               	rrf	??___flmul+2,f
  5027     06F2  0CC1               	rrf	??___flmul+1,f
  5028     06F3  0CC0               	rrf	??___flmul,f
  5029     06F4                     u2850:
  5030     06F4  3EFF               	addlw	-1
  5031     06F5  1D03               	skipz
  5032     06F6  2EEF               	goto	u2855
  5033     06F7  0840               	movf	??___flmul,w
  5034     06F8  07CC               	addwf	___flmul@prod,f
  5035     06F9  0841               	movf	??___flmul+1,w
  5036     06FA  1103               	clrz
  5037     06FB  1803               	skipnc
  5038     06FC  3E01               	addlw	1
  5039     06FD  1903               	skipnz
  5040     06FE  2F00               	goto	u2861
  5041     06FF  07CD               	addwf	___flmul@prod+1,f
  5042     0700                     u2861:
  5043     0700  0842               	movf	??___flmul+2,w
  5044     0701  1103               	clrz
  5045     0702  1803               	skipnc
  5046     0703  3E01               	addlw	1
  5047     0704  1903               	skipnz
  5048     0705  2F07               	goto	u2862
  5049     0706  07CE               	addwf	___flmul@prod+2,f
  5050     0707                     u2862:
  5051     0707  0843               	movf	??___flmul+3,w
  5052     0708  1103               	clrz
  5053     0709  1803               	skipnc
  5054     070A  3E01               	addlw	1
  5055     070B  1903               	skipnz
  5056     070C  2F0E               	goto	u2863
  5057     070D  07CF               	addwf	___flmul@prod+3,f
  5058     070E                     u2863:
  5059     070E                     l2364:
  5060     070E  3008               	movlw	8
  5061     070F  00C0               	movwf	??___flmul
  5062     0710                     u2875:
  5063     0710  1003               	clrc
  5064     0711  0DC6               	rlf	___flmul@grs,f
  5065     0712  0DC7               	rlf	___flmul@grs+1,f
  5066     0713  0DC8               	rlf	___flmul@grs+2,f
  5067     0714  0DC9               	rlf	___flmul@grs+3,f
  5068     0715  0BC0               	decfsz	??___flmul,f
  5069     0716  2F10               	goto	u2875
  5070     0717                     l2366:
  5071     0717  084B               	movf	___flmul@bexp,w
  5072     0718  074A               	addwf	___flmul@aexp,w
  5073     0719  00C0               	movwf	??___flmul
  5074     071A  01C1               	clrf	??___flmul+1
  5075     071B  0DC1               	rlf	??___flmul+1,f
  5076     071C  0840               	movf	??___flmul,w
  5077     071D  3E82               	addlw	130
  5078     071E  00D0               	movwf	___flmul@temp
  5079     071F  0841               	movf	??___flmul+1,w
  5080     0720  1803               	skipnc
  5081     0721  3E01               	addlw	1
  5082     0722  3EFF               	addlw	255
  5083     0723  00D1               	movwf	___flmul@temp+1
  5084     0724  2F42               	goto	l2378
  5085     0725                     l2368:
  5086     0725  3001               	movlw	1
  5087     0726  00C0               	movwf	??___flmul
  5088     0727                     u2885:
  5089     0727  1003               	clrc
  5090     0728  0DCC               	rlf	___flmul@prod,f
  5091     0729  0DCD               	rlf	___flmul@prod+1,f
  5092     072A  0DCE               	rlf	___flmul@prod+2,f
  5093     072B  0DCF               	rlf	___flmul@prod+3,f
  5094     072C  0BC0               	decfsz	??___flmul,f
  5095     072D  2F27               	goto	u2885
  5096     072E                     l2370:
  5097     072E  1FC9               	btfss	___flmul@grs+3,7
  5098     072F  2F31               	goto	u2891
  5099     0730  2F32               	goto	u2890
  5100     0731                     u2891:
  5101     0731  2F33               	goto	l2374
  5102     0732                     u2890:
  5103     0732                     l2372:
  5104     0732  144C               	bsf	___flmul@prod,0
  5105     0733                     l2374:
  5106     0733  3001               	movlw	1
  5107     0734  00C0               	movwf	??___flmul
  5108     0735                     u2905:
  5109     0735  1003               	clrc
  5110     0736  0DC6               	rlf	___flmul@grs,f
  5111     0737  0DC7               	rlf	___flmul@grs+1,f
  5112     0738  0DC8               	rlf	___flmul@grs+2,f
  5113     0739  0DC9               	rlf	___flmul@grs+3,f
  5114     073A  0BC0               	decfsz	??___flmul,f
  5115     073B  2F35               	goto	u2905
  5116     073C                     l2376:
  5117     073C  30FF               	movlw	255
  5118     073D  07D0               	addwf	___flmul@temp,f
  5119     073E  1803               	skipnc
  5120     073F  0AD1               	incf	___flmul@temp+1,f
  5121     0740  30FF               	movlw	255
  5122     0741  07D1               	addwf	___flmul@temp+1,f
  5123     0742                     l2378:
  5124     0742  1FCE               	btfss	___flmul@prod+2,7
  5125     0743  2F45               	goto	u2911
  5126     0744  2F46               	goto	u2910
  5127     0745                     u2911:
  5128     0745  2F25               	goto	l2368
  5129     0746                     u2910:
  5130     0746                     l2380:
  5131     0746  01CA               	clrf	___flmul@aexp
  5132     0747                     l2382:
  5133     0747  1FC9               	btfss	___flmul@grs+3,7
  5134     0748  2F4A               	goto	u2921
  5135     0749  2F4B               	goto	u2920
  5136     074A                     u2921:
  5137     074A  2F67               	goto	l2390
  5138     074B                     u2920:
  5139     074B                     l2384:
  5140     074B  30FF               	movlw	255
  5141     074C  0546               	andwf	___flmul@grs,w
  5142     074D  00C0               	movwf	??___flmul
  5143     074E  30FF               	movlw	255
  5144     074F  0547               	andwf	___flmul@grs+1,w
  5145     0750  00C1               	movwf	??___flmul+1
  5146     0751  30FF               	movlw	255
  5147     0752  0548               	andwf	___flmul@grs+2,w
  5148     0753  00C2               	movwf	??___flmul+2
  5149     0754  307F               	movlw	127
  5150     0755  0549               	andwf	___flmul@grs+3,w
  5151     0756  00C3               	movwf	??___flmul+3
  5152     0757  0843               	movf	??___flmul+3,w
  5153     0758  0442               	iorwf	??___flmul+2,w
  5154     0759  0441               	iorwf	??___flmul+1,w
  5155     075A  0440               	iorwf	??___flmul,w
  5156     075B  1903               	skipnz
  5157     075C  2F5E               	goto	u2931
  5158     075D  2F5F               	goto	u2930
  5159     075E                     u2931:
  5160     075E  2F62               	goto	l705
  5161     075F                     u2930:
  5162     075F                     l2386:
  5163     075F  01CA               	clrf	___flmul@aexp
  5164     0760  0ACA               	incf	___flmul@aexp,f
  5165     0761  2F67               	goto	l2390
  5166     0762                     l705:
  5167     0762  1C4C               	btfss	___flmul@prod,0
  5168     0763  2F65               	goto	u2941
  5169     0764  2F66               	goto	u2940
  5170     0765                     u2941:
  5171     0765  2F67               	goto	l2390
  5172     0766                     u2940:
  5173     0766  2F5F               	goto	l2386
  5174     0767                     l2390:
  5175     0767  084A               	movf	___flmul@aexp,w
  5176     0768  1903               	btfsc	3,2
  5177     0769  2F6B               	goto	u2951
  5178     076A  2F6C               	goto	u2950
  5179     076B                     u2951:
  5180     076B  2F9D               	goto	l2400
  5181     076C                     u2950:
  5182     076C                     l2392:
  5183     076C  3001               	movlw	1
  5184     076D  07CC               	addwf	___flmul@prod,f
  5185     076E  3000               	movlw	0
  5186     076F  1803               	skipnc
  5187     0770  3001               	movlw	1
  5188     0771  07CD               	addwf	___flmul@prod+1,f
  5189     0772  3000               	movlw	0
  5190     0773  1803               	skipnc
  5191     0774  3001               	movlw	1
  5192     0775  07CE               	addwf	___flmul@prod+2,f
  5193     0776  3000               	movlw	0
  5194     0777  1803               	skipnc
  5195     0778  3001               	movlw	1
  5196     0779  07CF               	addwf	___flmul@prod+3,f
  5197     077A                     l2394:
  5198     077A  1C4F               	btfss	___flmul@prod+3,0
  5199     077B  2F7D               	goto	u2961
  5200     077C  2F7E               	goto	u2960
  5201     077D                     u2961:
  5202     077D  2F9D               	goto	l2400
  5203     077E                     u2960:
  5204     077E                     l2396:
  5205     077E  084C               	movf	___flmul@prod,w
  5206     077F  00C0               	movwf	??___flmul
  5207     0780  084D               	movf	___flmul@prod+1,w
  5208     0781  00C1               	movwf	??___flmul+1
  5209     0782  084E               	movf	___flmul@prod+2,w
  5210     0783  00C2               	movwf	??___flmul+2
  5211     0784  084F               	movf	___flmul@prod+3,w
  5212     0785  00C3               	movwf	??___flmul+3
  5213     0786  3001               	movlw	1
  5214     0787  00C4               	movwf	??___flmul+4
  5215     0788                     u2975:
  5216     0788  0D43               	rlf	??___flmul+3,w
  5217     0789  0CC3               	rrf	??___flmul+3,f
  5218     078A  0CC2               	rrf	??___flmul+2,f
  5219     078B  0CC1               	rrf	??___flmul+1,f
  5220     078C  0CC0               	rrf	??___flmul,f
  5221     078D                     u2970:
  5222     078D  0BC4               	decfsz	??___flmul+4,f
  5223     078E  2F88               	goto	u2975
  5224     078F  0843               	movf	??___flmul+3,w
  5225     0790  00CF               	movwf	___flmul@prod+3
  5226     0791  0842               	movf	??___flmul+2,w
  5227     0792  00CE               	movwf	___flmul@prod+2
  5228     0793  0841               	movf	??___flmul+1,w
  5229     0794  00CD               	movwf	___flmul@prod+1
  5230     0795  0840               	movf	??___flmul,w
  5231     0796  00CC               	movwf	___flmul@prod
  5232     0797                     l2398:
  5233     0797  3001               	movlw	1
  5234     0798  07D0               	addwf	___flmul@temp,f
  5235     0799  1803               	skipnc
  5236     079A  0AD1               	incf	___flmul@temp+1,f
  5237     079B  3000               	movlw	0
  5238     079C  07D1               	addwf	___flmul@temp+1,f
  5239     079D                     l2400:
  5240     079D  0851               	movf	___flmul@temp+1,w
  5241     079E  3A80               	xorlw	128
  5242     079F  00FF               	movwf	btemp+1
  5243     07A0  3080               	movlw	128
  5244     07A1  027F               	subwf	btemp+1,w
  5245     07A2  1D03               	skipz
  5246     07A3  2FA6               	goto	u2985
  5247     07A4  30FF               	movlw	255
  5248     07A5  0250               	subwf	___flmul@temp,w
  5249     07A6                     u2985:
  5250     07A6  1C03               	skipc
  5251     07A7  2FA9               	goto	u2981
  5252     07A8  2FAA               	goto	u2980
  5253     07A9                     u2981:
  5254     07A9  2FB5               	goto	l2404
  5255     07AA                     u2980:
  5256     07AA                     l2402:
  5257     07AA  307F               	movlw	127
  5258     07AB  1283               	bcf	3,5	;RP0=0, select bank0
  5259     07AC  1303               	bcf	3,6	;RP1=0, select bank0
  5260     07AD  00CF               	movwf	___flmul@prod+3
  5261     07AE  3080               	movlw	128
  5262     07AF  00CE               	movwf	___flmul@prod+2
  5263     07B0  3000               	movlw	0
  5264     07B1  00CD               	movwf	___flmul@prod+1
  5265     07B2  3000               	movlw	0
  5266     07B3  00CC               	movwf	___flmul@prod
  5267     07B4  2FE6               	goto	l711
  5268     07B5                     l2404:
  5269     07B5  1283               	bcf	3,5	;RP0=0, select bank0
  5270     07B6  1303               	bcf	3,6	;RP1=0, select bank0
  5271     07B7  0851               	movf	___flmul@temp+1,w
  5272     07B8  3A80               	xorlw	128
  5273     07B9  00FF               	movwf	btemp+1
  5274     07BA  3080               	movlw	128
  5275     07BB  027F               	subwf	btemp+1,w
  5276     07BC  1D03               	skipz
  5277     07BD  2FC0               	goto	u2995
  5278     07BE  3001               	movlw	1
  5279     07BF  0250               	subwf	___flmul@temp,w
  5280     07C0                     u2995:
  5281     07C0  1803               	skipnc
  5282     07C1  2FC3               	goto	u2991
  5283     07C2  2FC4               	goto	u2990
  5284     07C3                     u2991:
  5285     07C3  2FD0               	goto	l2410
  5286     07C4                     u2990:
  5287     07C4                     l2406:
  5288     07C4  3000               	movlw	0
  5289     07C5  1283               	bcf	3,5	;RP0=0, select bank0
  5290     07C6  1303               	bcf	3,6	;RP1=0, select bank0
  5291     07C7  00CF               	movwf	___flmul@prod+3
  5292     07C8  3000               	movlw	0
  5293     07C9  00CE               	movwf	___flmul@prod+2
  5294     07CA  3000               	movlw	0
  5295     07CB  00CD               	movwf	___flmul@prod+1
  5296     07CC  3000               	movlw	0
  5297     07CD  00CC               	movwf	___flmul@prod
  5298     07CE                     l2408:
  5299     07CE  01C5               	clrf	___flmul@sign
  5300     07CF  2FE6               	goto	l711
  5301     07D0                     l2410:
  5302     07D0  1283               	bcf	3,5	;RP0=0, select bank0
  5303     07D1  1303               	bcf	3,6	;RP1=0, select bank0
  5304     07D2  0850               	movf	___flmul@temp,w
  5305     07D3  00CB               	movwf	___flmul@bexp
  5306     07D4  30FF               	movlw	255
  5307     07D5  05CC               	andwf	___flmul@prod,f
  5308     07D6  30FF               	movlw	255
  5309     07D7  05CD               	andwf	___flmul@prod+1,f
  5310     07D8  307F               	movlw	127
  5311     07D9  05CE               	andwf	___flmul@prod+2,f
  5312     07DA  3000               	movlw	0
  5313     07DB  05CF               	andwf	___flmul@prod+3,f
  5314     07DC                     l2412:
  5315     07DC  1C4B               	btfss	___flmul@bexp,0
  5316     07DD  2FDF               	goto	u3001
  5317     07DE  2FE0               	goto	u3000
  5318     07DF                     u3001:
  5319     07DF  2FE1               	goto	l2416
  5320     07E0                     u3000:
  5321     07E0                     l2414:
  5322     07E0  17CE               	bsf	___flmul@prod+2,7
  5323     07E1                     l2416:
  5324     07E1  084B               	movf	___flmul@bexp,w
  5325     07E2  00C0               	movwf	??___flmul
  5326     07E3  1003               	clrc
  5327     07E4  0C40               	rrf	??___flmul,w
  5328     07E5  00CF               	movwf	___flmul@prod+3
  5329     07E6                     l711:
  5330     07E6  0845               	movf	___flmul@sign,w
  5331     07E7  00C0               	movwf	??___flmul
  5332     07E8  0840               	movf	??___flmul,w
  5333     07E9  04CF               	iorwf	___flmul@prod+3,f
  5334     07EA                     l2418:
  5335     07EA  084F               	movf	___flmul@prod+3,w
  5336     07EB  00BB               	movwf	?___flmul+3
  5337     07EC  084E               	movf	___flmul@prod+2,w
  5338     07ED  00BA               	movwf	?___flmul+2
  5339     07EE  084D               	movf	___flmul@prod+1,w
  5340     07EF  00B9               	movwf	?___flmul+1
  5341     07F0  084C               	movf	___flmul@prod,w
  5342     07F1  00B8               	movwf	?___flmul
  5343     07F2                     l699:
  5344     07F2  0008               	return
  5345     07F3                     __end_of___flmul:
  5346                           
  5347                           	psect	text13
  5348     096F                     __ptext13:	
  5349 ;; *************** function __Umul8_16 *****************
  5350 ;; Defined at:
  5351 ;;		line 4 in file "C:\Program Files\Microchip\xc8\v2.40\pic\sources\c90\common\Umul8_16.c"
  5352 ;; Parameters:    Size  Location     Type
  5353 ;;  multiplier      1    wreg     unsigned char 
  5354 ;;  multiplicand    1    0[COMMON] unsigned char 
  5355 ;; Auto vars:     Size  Location     Type
  5356 ;;  multiplier      1    8[COMMON] unsigned char 
  5357 ;;  word_mpld       2    6[COMMON] unsigned int 
  5358 ;;  product         2    4[COMMON] unsigned int 
  5359 ;; Return value:  Size  Location     Type
  5360 ;;                  2    0[COMMON] unsigned int 
  5361 ;; Registers used:
  5362 ;;		wreg, status,2, status,0
  5363 ;; Tracked objects:
  5364 ;;		On entry : 0/0
  5365 ;;		On exit  : 0/0
  5366 ;;		Unchanged: 0/0
  5367 ;; Data sizes:     COMMON   BANK0   BANK1   BANK3   BANK2
  5368 ;;      Params:         2       0       0       0       0
  5369 ;;      Locals:         5       0       0       0       0
  5370 ;;      Temps:          2       0       0       0       0
  5371 ;;      Totals:         9       0       0       0       0
  5372 ;;Total ram usage:        9 bytes
  5373 ;; Hardware stack levels used: 1
  5374 ;; This function calls:
  5375 ;;		Nothing
  5376 ;; This function is called by:
  5377 ;;		___flmul
  5378 ;; This function uses a non-reentrant model
  5379 ;;
  5380                           
  5381     096F                     __Umul8_16:	
  5382                           ;psect for function __Umul8_16
  5383                           
  5384                           
  5385                           ;incstack = 0
  5386                           ; Regs used in __Umul8_16: [wreg+status,2+status,0]
  5387                           ;__Umul8_16@multiplier stored from wreg
  5388     096F  00F8               	movwf	__Umul8_16@multiplier
  5389     0970                     l2006:
  5390     0970  01F4               	clrf	__Umul8_16@product
  5391     0971  01F5               	clrf	__Umul8_16@product+1
  5392     0972                     l2008:
  5393     0972  0870               	movf	__Umul8_16@multiplicand,w
  5394     0973  00F2               	movwf	??__Umul8_16
  5395     0974  01F3               	clrf	??__Umul8_16+1
  5396     0975  0872               	movf	??__Umul8_16,w
  5397     0976  00F6               	movwf	__Umul8_16@word_mpld
  5398     0977  0873               	movf	??__Umul8_16+1,w
  5399     0978  00F7               	movwf	__Umul8_16@word_mpld+1
  5400     0979                     l2010:
  5401     0979  1C78               	btfss	__Umul8_16@multiplier,0
  5402     097A  297C               	goto	u2171
  5403     097B  297D               	goto	u2170
  5404     097C                     u2171:
  5405     097C  2983               	goto	l718
  5406     097D                     u2170:
  5407     097D                     l2012:
  5408     097D  0876               	movf	__Umul8_16@word_mpld,w
  5409     097E  07F4               	addwf	__Umul8_16@product,f
  5410     097F  1803               	skipnc
  5411     0980  0AF5               	incf	__Umul8_16@product+1,f
  5412     0981  0877               	movf	__Umul8_16@word_mpld+1,w
  5413     0982  07F5               	addwf	__Umul8_16@product+1,f
  5414     0983                     l718:
  5415     0983  3001               	movlw	1
  5416     0984                     u2185:
  5417     0984  1003               	clrc
  5418     0985  0DF6               	rlf	__Umul8_16@word_mpld,f
  5419     0986  0DF7               	rlf	__Umul8_16@word_mpld+1,f
  5420     0987  3EFF               	addlw	-1
  5421     0988  1D03               	skipz
  5422     0989  2984               	goto	u2185
  5423     098A  1003               	clrc
  5424     098B  0CF8               	rrf	__Umul8_16@multiplier,f
  5425     098C                     l2014:
  5426     098C  0878               	movf	__Umul8_16@multiplier,w
  5427     098D  1D03               	btfss	3,2
  5428     098E  2990               	goto	u2191
  5429     098F  2991               	goto	u2190
  5430     0990                     u2191:
  5431     0990  2979               	goto	l2010
  5432     0991                     u2190:
  5433     0991                     l2016:
  5434     0991  0875               	movf	__Umul8_16@product+1,w
  5435     0992  00F1               	movwf	?__Umul8_16+1
  5436     0993  0874               	movf	__Umul8_16@product,w
  5437     0994  00F0               	movwf	?__Umul8_16
  5438     0995                     l720:
  5439     0995  0008               	return
  5440     0996                     __end_of__Umul8_16:
  5441                           
  5442                           	psect	text14
  5443     007B                     __ptext14:	
  5444 ;; *************** function ___fldiv *****************
  5445 ;; Defined at:
  5446 ;;		line 8 in file "C:\Program Files\Microchip\xc8\v2.40\pic\sources\c90\common\sprcdiv.c"
  5447 ;; Parameters:    Size  Location     Type
  5448 ;;  a               4   50[BANK0 ] unsigned int 
  5449 ;;  b               4   54[BANK0 ] unsigned int 
  5450 ;; Auto vars:     Size  Location     Type
  5451 ;;  grs             4   70[BANK0 ] unsigned long 
  5452 ;;  rem             4   63[BANK0 ] unsigned long 
  5453 ;;  new_exp         2   68[BANK0 ] int 
  5454 ;;  aexp            1   75[BANK0 ] unsigned char 
  5455 ;;  bexp            1   74[BANK0 ] unsigned char 
  5456 ;;  sign            1   67[BANK0 ] unsigned char 
  5457 ;; Return value:  Size  Location     Type
  5458 ;;                  4   50[BANK0 ] unsigned char 
  5459 ;; Registers used:
  5460 ;;		wreg, status,2, status,0, btemp+1
  5461 ;; Tracked objects:
  5462 ;;		On entry : 0/0
  5463 ;;		On exit  : 0/0
  5464 ;;		Unchanged: 0/0
  5465 ;; Data sizes:     COMMON   BANK0   BANK1   BANK3   BANK2
  5466 ;;      Params:         0       8       0       0       0
  5467 ;;      Locals:         0      13       0       0       0
  5468 ;;      Temps:          0       5       0       0       0
  5469 ;;      Totals:         0      26       0       0       0
  5470 ;;Total ram usage:       26 bytes
  5471 ;; Hardware stack levels used: 1
  5472 ;; This function calls:
  5473 ;;		Nothing
  5474 ;; This function is called by:
  5475 ;;		_map
  5476 ;; This function uses a non-reentrant model
  5477 ;;
  5478                           
  5479     007B                     ___fldiv:	
  5480                           ;psect for function ___fldiv
  5481                           
  5482     007B                     l2140:	
  5483                           ;incstack = 0
  5484                           ; Regs used in ___fldiv: [wreg+status,2+status,0+btemp+1]
  5485                           
  5486     007B  1283               	bcf	3,5	;RP0=0, select bank0
  5487     007C  1303               	bcf	3,6	;RP1=0, select bank0
  5488     007D  0859               	movf	___fldiv@b+3,w
  5489     007E  3980               	andlw	128
  5490     007F  00E3               	movwf	___fldiv@sign
  5491     0080                     l2142:
  5492     0080  0859               	movf	___fldiv@b+3,w
  5493     0081  00DA               	movwf	??___fldiv
  5494     0082  075A               	addwf	??___fldiv,w
  5495     0083  00EA               	movwf	___fldiv@bexp
  5496     0084                     l2144:
  5497     0084  1FD8               	btfss	___fldiv@b+2,7
  5498     0085  2887               	goto	u2351
  5499     0086  2888               	goto	u2350
  5500     0087                     u2351:
  5501     0087  2889               	goto	l2148
  5502     0088                     u2350:
  5503     0088                     l2146:
  5504     0088  146A               	bsf	___fldiv@bexp,0
  5505     0089                     l2148:
  5506     0089  086A               	movf	___fldiv@bexp,w
  5507     008A  1903               	btfsc	3,2
  5508     008B  288D               	goto	u2361
  5509     008C  288E               	goto	u2360
  5510     008D                     u2361:
  5511     008D  289E               	goto	l2158
  5512     008E                     u2360:
  5513     008E                     l2150:
  5514     008E  0A6A               	incf	___fldiv@bexp,w
  5515     008F  1D03               	btfss	3,2
  5516     0090  2892               	goto	u2371
  5517     0091  2893               	goto	u2370
  5518     0092                     u2371:
  5519     0092  289B               	goto	l2154
  5520     0093                     u2370:
  5521     0093                     l2152:
  5522     0093  3000               	movlw	0
  5523     0094  00D9               	movwf	___fldiv@b+3
  5524     0095  3000               	movlw	0
  5525     0096  00D8               	movwf	___fldiv@b+2
  5526     0097  3000               	movlw	0
  5527     0098  00D7               	movwf	___fldiv@b+1
  5528     0099  3000               	movlw	0
  5529     009A  00D6               	movwf	___fldiv@b
  5530     009B                     l2154:
  5531     009B  17D8               	bsf	___fldiv@b+2,7
  5532     009C                     l2156:
  5533     009C  01D9               	clrf	___fldiv@b+3
  5534     009D  28A6               	goto	l2160
  5535     009E                     l2158:
  5536     009E  3000               	movlw	0
  5537     009F  00D9               	movwf	___fldiv@b+3
  5538     00A0  3000               	movlw	0
  5539     00A1  00D8               	movwf	___fldiv@b+2
  5540     00A2  3000               	movlw	0
  5541     00A3  00D7               	movwf	___fldiv@b+1
  5542     00A4  3000               	movlw	0
  5543     00A5  00D6               	movwf	___fldiv@b
  5544     00A6                     l2160:
  5545     00A6  0855               	movf	___fldiv@a+3,w
  5546     00A7  3980               	andlw	128
  5547     00A8  00DA               	movwf	??___fldiv
  5548     00A9  085A               	movf	??___fldiv,w
  5549     00AA  06E3               	xorwf	___fldiv@sign,f
  5550     00AB                     l2162:
  5551     00AB  0855               	movf	___fldiv@a+3,w
  5552     00AC  00DA               	movwf	??___fldiv
  5553     00AD  075A               	addwf	??___fldiv,w
  5554     00AE  00EB               	movwf	___fldiv@aexp
  5555     00AF                     l2164:
  5556     00AF  1FD4               	btfss	___fldiv@a+2,7
  5557     00B0  28B2               	goto	u2381
  5558     00B1  28B3               	goto	u2380
  5559     00B2                     u2381:
  5560     00B2  28B4               	goto	l2168
  5561     00B3                     u2380:
  5562     00B3                     l2166:
  5563     00B3  146B               	bsf	___fldiv@aexp,0
  5564     00B4                     l2168:
  5565     00B4  086B               	movf	___fldiv@aexp,w
  5566     00B5  1903               	btfsc	3,2
  5567     00B6  28B8               	goto	u2391
  5568     00B7  28B9               	goto	u2390
  5569     00B8                     u2391:
  5570     00B8  28C9               	goto	l2178
  5571     00B9                     u2390:
  5572     00B9                     l2170:
  5573     00B9  0A6B               	incf	___fldiv@aexp,w
  5574     00BA  1D03               	btfss	3,2
  5575     00BB  28BD               	goto	u2401
  5576     00BC  28BE               	goto	u2400
  5577     00BD                     u2401:
  5578     00BD  28C6               	goto	l2174
  5579     00BE                     u2400:
  5580     00BE                     l2172:
  5581     00BE  3000               	movlw	0
  5582     00BF  00D5               	movwf	___fldiv@a+3
  5583     00C0  3000               	movlw	0
  5584     00C1  00D4               	movwf	___fldiv@a+2
  5585     00C2  3000               	movlw	0
  5586     00C3  00D3               	movwf	___fldiv@a+1
  5587     00C4  3000               	movlw	0
  5588     00C5  00D2               	movwf	___fldiv@a
  5589     00C6                     l2174:
  5590     00C6  17D4               	bsf	___fldiv@a+2,7
  5591     00C7                     l2176:
  5592     00C7  01D5               	clrf	___fldiv@a+3
  5593     00C8  28D1               	goto	l659
  5594     00C9                     l2178:
  5595     00C9  3000               	movlw	0
  5596     00CA  00D5               	movwf	___fldiv@a+3
  5597     00CB  3000               	movlw	0
  5598     00CC  00D4               	movwf	___fldiv@a+2
  5599     00CD  3000               	movlw	0
  5600     00CE  00D3               	movwf	___fldiv@a+1
  5601     00CF  3000               	movlw	0
  5602     00D0  00D2               	movwf	___fldiv@a
  5603     00D1                     l659:
  5604     00D1  0855               	movf	___fldiv@a+3,w
  5605     00D2  0454               	iorwf	___fldiv@a+2,w
  5606     00D3  0453               	iorwf	___fldiv@a+1,w
  5607     00D4  0452               	iorwf	___fldiv@a,w
  5608     00D5  1D03               	skipz
  5609     00D6  28D8               	goto	u2411
  5610     00D7  28D9               	goto	u2410
  5611     00D8                     u2411:
  5612     00D8  28F2               	goto	l2188
  5613     00D9                     u2410:
  5614     00D9                     l2180:
  5615     00D9  3000               	movlw	0
  5616     00DA  00D9               	movwf	___fldiv@b+3
  5617     00DB  3000               	movlw	0
  5618     00DC  00D8               	movwf	___fldiv@b+2
  5619     00DD  3000               	movlw	0
  5620     00DE  00D7               	movwf	___fldiv@b+1
  5621     00DF  3000               	movlw	0
  5622     00E0  00D6               	movwf	___fldiv@b
  5623     00E1  3080               	movlw	128
  5624     00E2  04D8               	iorwf	___fldiv@b+2,f
  5625     00E3  307F               	movlw	127
  5626     00E4  04D9               	iorwf	___fldiv@b+3,f
  5627     00E5                     l2182:
  5628     00E5  0863               	movf	___fldiv@sign,w
  5629     00E6  00DA               	movwf	??___fldiv
  5630     00E7  085A               	movf	??___fldiv,w
  5631     00E8  04D9               	iorwf	___fldiv@b+3,f
  5632     00E9                     l2184:
  5633     00E9  0859               	movf	___fldiv@b+3,w
  5634     00EA  00D5               	movwf	?___fldiv+3
  5635     00EB  0858               	movf	___fldiv@b+2,w
  5636     00EC  00D4               	movwf	?___fldiv+2
  5637     00ED  0857               	movf	___fldiv@b+1,w
  5638     00EE  00D3               	movwf	?___fldiv+1
  5639     00EF  0856               	movf	___fldiv@b,w
  5640     00F0  00D2               	movwf	?___fldiv
  5641     00F1  2A4D               	goto	l661
  5642     00F2                     l2188:
  5643     00F2  086A               	movf	___fldiv@bexp,w
  5644     00F3  1D03               	btfss	3,2
  5645     00F4  28F6               	goto	u2421
  5646     00F5  28F7               	goto	u2420
  5647     00F6                     u2421:
  5648     00F6  2900               	goto	l2194
  5649     00F7                     u2420:
  5650     00F7                     l2190:
  5651     00F7  3000               	movlw	0
  5652     00F8  00D5               	movwf	?___fldiv+3
  5653     00F9  3000               	movlw	0
  5654     00FA  00D4               	movwf	?___fldiv+2
  5655     00FB  3000               	movlw	0
  5656     00FC  00D3               	movwf	?___fldiv+1
  5657     00FD  3000               	movlw	0
  5658     00FE  00D2               	movwf	?___fldiv
  5659     00FF  2A4D               	goto	l661
  5660     0100                     l2194:
  5661     0100  086A               	movf	___fldiv@bexp,w
  5662     0101  00DA               	movwf	??___fldiv
  5663     0102  01DB               	clrf	??___fldiv+1
  5664     0103  085B               	movf	??___fldiv+1,w
  5665     0104  00DD               	movwf	??___fldiv+3
  5666     0105  086B               	movf	___fldiv@aexp,w
  5667     0106  025A               	subwf	??___fldiv,w
  5668     0107  00DC               	movwf	??___fldiv+2
  5669     0108  1C03               	skipc
  5670     0109  03DD               	decf	??___fldiv+3,f
  5671     010A  085C               	movf	??___fldiv+2,w
  5672     010B  3E7F               	addlw	127
  5673     010C  00E4               	movwf	___fldiv@new_exp
  5674     010D  085D               	movf	??___fldiv+3,w
  5675     010E  1803               	skipnc
  5676     010F  3E01               	addlw	1
  5677     0110  3E00               	addlw	0
  5678     0111  00E5               	movwf	___fldiv@new_exp+1
  5679     0112                     l2196:
  5680     0112  0859               	movf	___fldiv@b+3,w
  5681     0113  00E2               	movwf	___fldiv@rem+3
  5682     0114  0858               	movf	___fldiv@b+2,w
  5683     0115  00E1               	movwf	___fldiv@rem+2
  5684     0116  0857               	movf	___fldiv@b+1,w
  5685     0117  00E0               	movwf	___fldiv@rem+1
  5686     0118  0856               	movf	___fldiv@b,w
  5687     0119  00DF               	movwf	___fldiv@rem
  5688     011A                     l2198:
  5689     011A  3000               	movlw	0
  5690     011B  00D9               	movwf	___fldiv@b+3
  5691     011C  3000               	movlw	0
  5692     011D  00D8               	movwf	___fldiv@b+2
  5693     011E  3000               	movlw	0
  5694     011F  00D7               	movwf	___fldiv@b+1
  5695     0120  3000               	movlw	0
  5696     0121  00D6               	movwf	___fldiv@b
  5697     0122                     l2200:
  5698     0122  3000               	movlw	0
  5699     0123  00E9               	movwf	___fldiv@grs+3
  5700     0124  3000               	movlw	0
  5701     0125  00E8               	movwf	___fldiv@grs+2
  5702     0126  3000               	movlw	0
  5703     0127  00E7               	movwf	___fldiv@grs+1
  5704     0128  3000               	movlw	0
  5705     0129  00E6               	movwf	___fldiv@grs
  5706     012A                     l2202:
  5707     012A  01EB               	clrf	___fldiv@aexp
  5708     012B  2976               	goto	l2222
  5709     012C                     l2204:
  5710     012C  086B               	movf	___fldiv@aexp,w
  5711     012D  1903               	btfsc	3,2
  5712     012E  2930               	goto	u2431
  5713     012F  2931               	goto	u2430
  5714     0130                     u2431:
  5715     0130  2951               	goto	l2214
  5716     0131                     u2430:
  5717     0131                     l2206:
  5718     0131  3001               	movlw	1
  5719     0132  00DA               	movwf	??___fldiv
  5720     0133                     u2445:
  5721     0133  1003               	clrc
  5722     0134  0DDF               	rlf	___fldiv@rem,f
  5723     0135  0DE0               	rlf	___fldiv@rem+1,f
  5724     0136  0DE1               	rlf	___fldiv@rem+2,f
  5725     0137  0DE2               	rlf	___fldiv@rem+3,f
  5726     0138  0BDA               	decfsz	??___fldiv,f
  5727     0139  2933               	goto	u2445
  5728     013A  3001               	movlw	1
  5729     013B  00DA               	movwf	??___fldiv
  5730     013C                     u2455:
  5731     013C  1003               	clrc
  5732     013D  0DD6               	rlf	___fldiv@b,f
  5733     013E  0DD7               	rlf	___fldiv@b+1,f
  5734     013F  0DD8               	rlf	___fldiv@b+2,f
  5735     0140  0DD9               	rlf	___fldiv@b+3,f
  5736     0141  0BDA               	decfsz	??___fldiv,f
  5737     0142  293C               	goto	u2455
  5738     0143                     l2208:
  5739     0143  1FE9               	btfss	___fldiv@grs+3,7
  5740     0144  2946               	goto	u2461
  5741     0145  2947               	goto	u2460
  5742     0146                     u2461:
  5743     0146  2948               	goto	l2212
  5744     0147                     u2460:
  5745     0147                     l2210:
  5746     0147  1456               	bsf	___fldiv@b,0
  5747     0148                     l2212:
  5748     0148  3001               	movlw	1
  5749     0149  00DA               	movwf	??___fldiv
  5750     014A                     u2475:
  5751     014A  1003               	clrc
  5752     014B  0DE6               	rlf	___fldiv@grs,f
  5753     014C  0DE7               	rlf	___fldiv@grs+1,f
  5754     014D  0DE8               	rlf	___fldiv@grs+2,f
  5755     014E  0DE9               	rlf	___fldiv@grs+3,f
  5756     014F  0BDA               	decfsz	??___fldiv,f
  5757     0150  294A               	goto	u2475
  5758     0151                     l2214:
  5759     0151  0855               	movf	___fldiv@a+3,w
  5760     0152  0262               	subwf	___fldiv@rem+3,w
  5761     0153  1D03               	skipz
  5762     0154  295F               	goto	u2485
  5763     0155  0854               	movf	___fldiv@a+2,w
  5764     0156  0261               	subwf	___fldiv@rem+2,w
  5765     0157  1D03               	skipz
  5766     0158  295F               	goto	u2485
  5767     0159  0853               	movf	___fldiv@a+1,w
  5768     015A  0260               	subwf	___fldiv@rem+1,w
  5769     015B  1D03               	skipz
  5770     015C  295F               	goto	u2485
  5771     015D  0852               	movf	___fldiv@a,w
  5772     015E  025F               	subwf	___fldiv@rem,w
  5773     015F                     u2485:
  5774     015F  1C03               	skipc
  5775     0160  2962               	goto	u2481
  5776     0161  2963               	goto	u2480
  5777     0162                     u2481:
  5778     0162  2972               	goto	l2220
  5779     0163                     u2480:
  5780     0163                     l2216:
  5781     0163  1769               	bsf	___fldiv@grs+3,6
  5782     0164                     l2218:
  5783     0164  0852               	movf	___fldiv@a,w
  5784     0165  02DF               	subwf	___fldiv@rem,f
  5785     0166  0853               	movf	___fldiv@a+1,w
  5786     0167  1C03               	skipc
  5787     0168  0F53               	incfsz	___fldiv@a+1,w
  5788     0169  02E0               	subwf	___fldiv@rem+1,f
  5789     016A  0854               	movf	___fldiv@a+2,w
  5790     016B  1C03               	skipc
  5791     016C  0F54               	incfsz	___fldiv@a+2,w
  5792     016D  02E1               	subwf	___fldiv@rem+2,f
  5793     016E  0855               	movf	___fldiv@a+3,w
  5794     016F  1C03               	skipc
  5795     0170  0F55               	incfsz	___fldiv@a+3,w
  5796     0171  02E2               	subwf	___fldiv@rem+3,f
  5797     0172                     l2220:
  5798     0172  3001               	movlw	1
  5799     0173  00DA               	movwf	??___fldiv
  5800     0174  085A               	movf	??___fldiv,w
  5801     0175  07EB               	addwf	___fldiv@aexp,f
  5802     0176                     l2222:
  5803     0176  301A               	movlw	26
  5804     0177  026B               	subwf	___fldiv@aexp,w
  5805     0178  1C03               	skipc
  5806     0179  297B               	goto	u2491
  5807     017A  297C               	goto	u2490
  5808     017B                     u2491:
  5809     017B  292C               	goto	l2204
  5810     017C                     u2490:
  5811     017C                     l2224:
  5812     017C  0862               	movf	___fldiv@rem+3,w
  5813     017D  0461               	iorwf	___fldiv@rem+2,w
  5814     017E  0460               	iorwf	___fldiv@rem+1,w
  5815     017F  045F               	iorwf	___fldiv@rem,w
  5816     0180  1903               	skipnz
  5817     0181  2983               	goto	u2501
  5818     0182  2984               	goto	u2500
  5819     0183                     u2501:
  5820     0183  29A3               	goto	l2238
  5821     0184                     u2500:
  5822     0184                     l2226:
  5823     0184  1466               	bsf	___fldiv@grs,0
  5824     0185  29A3               	goto	l2238
  5825     0186                     l2228:
  5826     0186  3001               	movlw	1
  5827     0187  00DA               	movwf	??___fldiv
  5828     0188                     u2515:
  5829     0188  1003               	clrc
  5830     0189  0DD6               	rlf	___fldiv@b,f
  5831     018A  0DD7               	rlf	___fldiv@b+1,f
  5832     018B  0DD8               	rlf	___fldiv@b+2,f
  5833     018C  0DD9               	rlf	___fldiv@b+3,f
  5834     018D  0BDA               	decfsz	??___fldiv,f
  5835     018E  2988               	goto	u2515
  5836     018F                     l2230:
  5837     018F  1FE9               	btfss	___fldiv@grs+3,7
  5838     0190  2992               	goto	u2521
  5839     0191  2993               	goto	u2520
  5840     0192                     u2521:
  5841     0192  2994               	goto	l2234
  5842     0193                     u2520:
  5843     0193                     l2232:
  5844     0193  1456               	bsf	___fldiv@b,0
  5845     0194                     l2234:
  5846     0194  3001               	movlw	1
  5847     0195  00DA               	movwf	??___fldiv
  5848     0196                     u2535:
  5849     0196  1003               	clrc
  5850     0197  0DE6               	rlf	___fldiv@grs,f
  5851     0198  0DE7               	rlf	___fldiv@grs+1,f
  5852     0199  0DE8               	rlf	___fldiv@grs+2,f
  5853     019A  0DE9               	rlf	___fldiv@grs+3,f
  5854     019B  0BDA               	decfsz	??___fldiv,f
  5855     019C  2996               	goto	u2535
  5856     019D                     l2236:
  5857     019D  30FF               	movlw	255
  5858     019E  07E4               	addwf	___fldiv@new_exp,f
  5859     019F  1803               	skipnc
  5860     01A0  0AE5               	incf	___fldiv@new_exp+1,f
  5861     01A1  30FF               	movlw	255
  5862     01A2  07E5               	addwf	___fldiv@new_exp+1,f
  5863     01A3                     l2238:
  5864     01A3  1FD8               	btfss	___fldiv@b+2,7
  5865     01A4  29A6               	goto	u2541
  5866     01A5  29A7               	goto	u2540
  5867     01A6                     u2541:
  5868     01A6  2986               	goto	l2228
  5869     01A7                     u2540:
  5870     01A7                     l2240:
  5871     01A7  01EB               	clrf	___fldiv@aexp
  5872     01A8                     l2242:
  5873     01A8  1FE9               	btfss	___fldiv@grs+3,7
  5874     01A9  29AB               	goto	u2551
  5875     01AA  29AC               	goto	u2550
  5876     01AB                     u2551:
  5877     01AB  29C8               	goto	l2250
  5878     01AC                     u2550:
  5879     01AC                     l2244:
  5880     01AC  30FF               	movlw	255
  5881     01AD  0566               	andwf	___fldiv@grs,w
  5882     01AE  00DA               	movwf	??___fldiv
  5883     01AF  30FF               	movlw	255
  5884     01B0  0567               	andwf	___fldiv@grs+1,w
  5885     01B1  00DB               	movwf	??___fldiv+1
  5886     01B2  30FF               	movlw	255
  5887     01B3  0568               	andwf	___fldiv@grs+2,w
  5888     01B4  00DC               	movwf	??___fldiv+2
  5889     01B5  307F               	movlw	127
  5890     01B6  0569               	andwf	___fldiv@grs+3,w
  5891     01B7  00DD               	movwf	??___fldiv+3
  5892     01B8  085D               	movf	??___fldiv+3,w
  5893     01B9  045C               	iorwf	??___fldiv+2,w
  5894     01BA  045B               	iorwf	??___fldiv+1,w
  5895     01BB  045A               	iorwf	??___fldiv,w
  5896     01BC  1903               	skipnz
  5897     01BD  29BF               	goto	u2561
  5898     01BE  29C0               	goto	u2560
  5899     01BF                     u2561:
  5900     01BF  29C3               	goto	l675
  5901     01C0                     u2560:
  5902     01C0                     l2246:
  5903     01C0  01EB               	clrf	___fldiv@aexp
  5904     01C1  0AEB               	incf	___fldiv@aexp,f
  5905     01C2  29C8               	goto	l2250
  5906     01C3                     l675:
  5907     01C3  1C56               	btfss	___fldiv@b,0
  5908     01C4  29C6               	goto	u2571
  5909     01C5  29C7               	goto	u2570
  5910     01C6                     u2571:
  5911     01C6  29C8               	goto	l2250
  5912     01C7                     u2570:
  5913     01C7  29C0               	goto	l2246
  5914     01C8                     l2250:
  5915     01C8  086B               	movf	___fldiv@aexp,w
  5916     01C9  1903               	btfsc	3,2
  5917     01CA  29CC               	goto	u2581
  5918     01CB  29CD               	goto	u2580
  5919     01CC                     u2581:
  5920     01CC  29FE               	goto	l2260
  5921     01CD                     u2580:
  5922     01CD                     l2252:
  5923     01CD  3001               	movlw	1
  5924     01CE  07D6               	addwf	___fldiv@b,f
  5925     01CF  3000               	movlw	0
  5926     01D0  1803               	skipnc
  5927     01D1  3001               	movlw	1
  5928     01D2  07D7               	addwf	___fldiv@b+1,f
  5929     01D3  3000               	movlw	0
  5930     01D4  1803               	skipnc
  5931     01D5  3001               	movlw	1
  5932     01D6  07D8               	addwf	___fldiv@b+2,f
  5933     01D7  3000               	movlw	0
  5934     01D8  1803               	skipnc
  5935     01D9  3001               	movlw	1
  5936     01DA  07D9               	addwf	___fldiv@b+3,f
  5937     01DB                     l2254:
  5938     01DB  1C59               	btfss	___fldiv@b+3,0
  5939     01DC  29DE               	goto	u2591
  5940     01DD  29DF               	goto	u2590
  5941     01DE                     u2591:
  5942     01DE  29FE               	goto	l2260
  5943     01DF                     u2590:
  5944     01DF                     l2256:
  5945     01DF  0856               	movf	___fldiv@b,w
  5946     01E0  00DA               	movwf	??___fldiv
  5947     01E1  0857               	movf	___fldiv@b+1,w
  5948     01E2  00DB               	movwf	??___fldiv+1
  5949     01E3  0858               	movf	___fldiv@b+2,w
  5950     01E4  00DC               	movwf	??___fldiv+2
  5951     01E5  0859               	movf	___fldiv@b+3,w
  5952     01E6  00DD               	movwf	??___fldiv+3
  5953     01E7  3001               	movlw	1
  5954     01E8  00DE               	movwf	??___fldiv+4
  5955     01E9                     u2605:
  5956     01E9  0D5D               	rlf	??___fldiv+3,w
  5957     01EA  0CDD               	rrf	??___fldiv+3,f
  5958     01EB  0CDC               	rrf	??___fldiv+2,f
  5959     01EC  0CDB               	rrf	??___fldiv+1,f
  5960     01ED  0CDA               	rrf	??___fldiv,f
  5961     01EE                     u2600:
  5962     01EE  0BDE               	decfsz	??___fldiv+4,f
  5963     01EF  29E9               	goto	u2605
  5964     01F0  085D               	movf	??___fldiv+3,w
  5965     01F1  00D9               	movwf	___fldiv@b+3
  5966     01F2  085C               	movf	??___fldiv+2,w
  5967     01F3  00D8               	movwf	___fldiv@b+2
  5968     01F4  085B               	movf	??___fldiv+1,w
  5969     01F5  00D7               	movwf	___fldiv@b+1
  5970     01F6  085A               	movf	??___fldiv,w
  5971     01F7  00D6               	movwf	___fldiv@b
  5972     01F8                     l2258:
  5973     01F8  3001               	movlw	1
  5974     01F9  07E4               	addwf	___fldiv@new_exp,f
  5975     01FA  1803               	skipnc
  5976     01FB  0AE5               	incf	___fldiv@new_exp+1,f
  5977     01FC  3000               	movlw	0
  5978     01FD  07E5               	addwf	___fldiv@new_exp+1,f
  5979     01FE                     l2260:
  5980     01FE  0865               	movf	___fldiv@new_exp+1,w
  5981     01FF  3A80               	xorlw	128
  5982     0200  00FF               	movwf	btemp+1
  5983     0201  3080               	movlw	128
  5984     0202  027F               	subwf	btemp+1,w
  5985     0203  1D03               	skipz
  5986     0204  2A07               	goto	u2615
  5987     0205  30FF               	movlw	255
  5988     0206  0264               	subwf	___fldiv@new_exp,w
  5989     0207                     u2615:
  5990     0207  1C03               	skipc
  5991     0208  2A0A               	goto	u2611
  5992     0209  2A0B               	goto	u2610
  5993     020A                     u2611:
  5994     020A  2A19               	goto	l2264
  5995     020B                     u2610:
  5996     020B                     l2262:
  5997     020B  30FF               	movlw	255
  5998     020C  1283               	bcf	3,5	;RP0=0, select bank0
  5999     020D  1303               	bcf	3,6	;RP1=0, select bank0
  6000     020E  00E4               	movwf	___fldiv@new_exp
  6001     020F  3000               	movlw	0
  6002     0210  00E5               	movwf	___fldiv@new_exp+1
  6003     0211  3000               	movlw	0
  6004     0212  00D9               	movwf	___fldiv@b+3
  6005     0213  3000               	movlw	0
  6006     0214  00D8               	movwf	___fldiv@b+2
  6007     0215  3000               	movlw	0
  6008     0216  00D7               	movwf	___fldiv@b+1
  6009     0217  3000               	movlw	0
  6010     0218  00D6               	movwf	___fldiv@b
  6011     0219                     l2264:
  6012     0219  1283               	bcf	3,5	;RP0=0, select bank0
  6013     021A  1303               	bcf	3,6	;RP1=0, select bank0
  6014     021B  0865               	movf	___fldiv@new_exp+1,w
  6015     021C  3A80               	xorlw	128
  6016     021D  00FF               	movwf	btemp+1
  6017     021E  3080               	movlw	128
  6018     021F  027F               	subwf	btemp+1,w
  6019     0220  1D03               	skipz
  6020     0221  2A24               	goto	u2625
  6021     0222  3001               	movlw	1
  6022     0223  0264               	subwf	___fldiv@new_exp,w
  6023     0224                     u2625:
  6024     0224  1803               	skipnc
  6025     0225  2A27               	goto	u2621
  6026     0226  2A28               	goto	u2620
  6027     0227                     u2621:
  6028     0227  2A35               	goto	l681
  6029     0228                     u2620:
  6030     0228                     l2266:
  6031     0228  1283               	bcf	3,5	;RP0=0, select bank0
  6032     0229  1303               	bcf	3,6	;RP1=0, select bank0
  6033     022A  01E4               	clrf	___fldiv@new_exp
  6034     022B  01E5               	clrf	___fldiv@new_exp+1
  6035     022C                     l2268:
  6036     022C  3000               	movlw	0
  6037     022D  00D9               	movwf	___fldiv@b+3
  6038     022E  3000               	movlw	0
  6039     022F  00D8               	movwf	___fldiv@b+2
  6040     0230  3000               	movlw	0
  6041     0231  00D7               	movwf	___fldiv@b+1
  6042     0232  3000               	movlw	0
  6043     0233  00D6               	movwf	___fldiv@b
  6044     0234                     l2270:
  6045     0234  01E3               	clrf	___fldiv@sign
  6046     0235                     l681:
  6047     0235  1283               	bcf	3,5	;RP0=0, select bank0
  6048     0236  1303               	bcf	3,6	;RP1=0, select bank0
  6049     0237  0864               	movf	___fldiv@new_exp,w
  6050     0238  00EA               	movwf	___fldiv@bexp
  6051     0239                     l2272:
  6052     0239  1C6A               	btfss	___fldiv@bexp,0
  6053     023A  2A3C               	goto	u2631
  6054     023B  2A3D               	goto	u2630
  6055     023C                     u2631:
  6056     023C  2A3F               	goto	l2276
  6057     023D                     u2630:
  6058     023D                     l2274:
  6059     023D  17D8               	bsf	___fldiv@b+2,7
  6060     023E  2A43               	goto	l683
  6061     023F                     l2276:
  6062     023F  307F               	movlw	127
  6063     0240  00DA               	movwf	??___fldiv
  6064     0241  085A               	movf	??___fldiv,w
  6065     0242  05D8               	andwf	___fldiv@b+2,f
  6066     0243                     l683:
  6067     0243  086A               	movf	___fldiv@bexp,w
  6068     0244  00DA               	movwf	??___fldiv
  6069     0245  1003               	clrc
  6070     0246  0C5A               	rrf	??___fldiv,w
  6071     0247  00D9               	movwf	___fldiv@b+3
  6072     0248  0863               	movf	___fldiv@sign,w
  6073     0249  00DA               	movwf	??___fldiv
  6074     024A  085A               	movf	??___fldiv,w
  6075     024B  04D9               	iorwf	___fldiv@b+3,f
  6076     024C  28E9               	goto	l2184
  6077     024D                     l661:
  6078     024D  0008               	return
  6079     024E                     __end_of___fldiv:
  6080                           
  6081                           	psect	text15
  6082     178A                     __ptext15:	
  6083 ;; *************** function _adc_read *****************
  6084 ;; Defined at:
  6085 ;;		line 96 in file "C:/Users/Bryan Ortiz/Desktop/Digital2/Lab2D2.X/ADC.c"
  6086 ;; Parameters:    Size  Location     Type
  6087 ;;		None
  6088 ;; Auto vars:     Size  Location     Type
  6089 ;;  adcValue        2    4[COMMON] int 
  6090 ;; Return value:  Size  Location     Type
  6091 ;;                  2    0[COMMON] int 
  6092 ;; Registers used:
  6093 ;;		wreg
  6094 ;; Tracked objects:
  6095 ;;		On entry : 0/0
  6096 ;;		On exit  : 0/0
  6097 ;;		Unchanged: 0/0
  6098 ;; Data sizes:     COMMON   BANK0   BANK1   BANK3   BANK2
  6099 ;;      Params:         2       0       0       0       0
  6100 ;;      Locals:         2       0       0       0       0
  6101 ;;      Temps:          2       0       0       0       0
  6102 ;;      Totals:         6       0       0       0       0
  6103 ;;Total ram usage:        6 bytes
  6104 ;; Hardware stack levels used: 1
  6105 ;; This function calls:
  6106 ;;		Nothing
  6107 ;; This function is called by:
  6108 ;;		_main
  6109 ;; This function uses a non-reentrant model
  6110 ;;
  6111                           
  6112     178A                     _adc_read:	
  6113                           ;psect for function _adc_read
  6114                           
  6115     178A                     l2422:	
  6116                           ;incstack = 0
  6117                           ; Regs used in _adc_read: [wreg]
  6118                           
  6119                           
  6120                           ;C:/Users/Bryan Ortiz/Desktop/Digital2/Lab2D2.X/ADC.c: 97:     int adcValue;;C:/Users/Br
      +                          yan Ortiz/Desktop/Digital2/Lab2D2.X/ADC.c: 98:     ADCON0bits.GO = 1;
  6121     178A  1283               	bcf	3,5	;RP0=0, select bank0
  6122     178B  1303               	bcf	3,6	;RP1=0, select bank0
  6123     178C  149F               	bsf	31,1	;volatile
  6124     178D                     l48:	
  6125                           ;C:/Users/Bryan Ortiz/Desktop/Digital2/Lab2D2.X/ADC.c: 99:     while(ADCON0bits.GO == 1)
      +                          ;
  6126                           
  6127     178D  189F               	btfsc	31,1	;volatile
  6128     178E  2F90               	goto	u3011
  6129     178F  2F91               	goto	u3010
  6130     1790                     u3011:
  6131     1790  2F8D               	goto	l48
  6132     1791                     u3010:
  6133     1791                     l50:
  6134                           
  6135                           ;C:/Users/Bryan Ortiz/Desktop/Digital2/Lab2D2.X/ADC.c: 100:     ADIF = 0;
  6136     1791  130C               	bcf	12,6	;volatile
  6137     1792                     l2424:
  6138                           
  6139                           ;C:/Users/Bryan Ortiz/Desktop/Digital2/Lab2D2.X/ADC.c: 101:     adcValue = ADRESH;
  6140     1792  081E               	movf	30,w	;volatile
  6141     1793  00F2               	movwf	??_adc_read
  6142     1794  01F3               	clrf	??_adc_read+1
  6143     1795  0872               	movf	??_adc_read,w
  6144     1796  00F4               	movwf	adc_read@adcValue
  6145     1797  0873               	movf	??_adc_read+1,w
  6146     1798  00F5               	movwf	adc_read@adcValue+1
  6147                           
  6148                           ;C:/Users/Bryan Ortiz/Desktop/Digital2/Lab2D2.X/ADC.c: 102:     return adcValue;
  6149     1799  0875               	movf	adc_read@adcValue+1,w
  6150     179A  00F1               	movwf	?_adc_read+1
  6151     179B  0874               	movf	adc_read@adcValue,w
  6152     179C  00F0               	movwf	?_adc_read
  6153     179D                     l51:
  6154     179D  0008               	return
  6155     179E                     __end_of_adc_read:
  6156                           
  6157                           	psect	text16
  6158     0AFF                     __ptext16:	
  6159 ;; *************** function ___xxtofl *****************
  6160 ;; Defined at:
  6161 ;;		line 10 in file "C:\Program Files\Microchip\xc8\v2.40\pic\sources\c90\common\xxtofl.c"
  6162 ;; Parameters:    Size  Location     Type
  6163 ;;  sign            1    wreg     unsigned char 
  6164 ;;  val             4    0[COMMON] long 
  6165 ;; Auto vars:     Size  Location     Type
  6166 ;;  sign            1    8[COMMON] unsigned char 
  6167 ;;  arg             4   10[COMMON] unsigned long 
  6168 ;;  exp             1    9[COMMON] unsigned char 
  6169 ;; Return value:  Size  Location     Type
  6170 ;;                  4    0[COMMON] unsigned char 
  6171 ;; Registers used:
  6172 ;;		wreg, status,2, status,0
  6173 ;; Tracked objects:
  6174 ;;		On entry : 0/0
  6175 ;;		On exit  : 0/0
  6176 ;;		Unchanged: 0/0
  6177 ;; Data sizes:     COMMON   BANK0   BANK1   BANK3   BANK2
  6178 ;;      Params:         4       0       0       0       0
  6179 ;;      Locals:         6       0       0       0       0
  6180 ;;      Temps:          4       0       0       0       0
  6181 ;;      Totals:        14       0       0       0       0
  6182 ;;Total ram usage:       14 bytes
  6183 ;; Hardware stack levels used: 1
  6184 ;; This function calls:
  6185 ;;		Nothing
  6186 ;; This function is called by:
  6187 ;;		_main
  6188 ;; This function uses a non-reentrant model
  6189 ;;
  6190                           
  6191     0AFF                     ___xxtofl:	
  6192                           ;psect for function ___xxtofl
  6193                           
  6194                           
  6195                           ;incstack = 0
  6196                           ; Regs used in ___xxtofl: [wreg+status,2+status,0]
  6197                           ;___xxtofl@sign stored from wreg
  6198     0AFF  00F8               	movwf	___xxtofl@sign
  6199     0B00                     l2546:
  6200     0B00  0878               	movf	___xxtofl@sign,w
  6201     0B01  1903               	btfsc	3,2
  6202     0B02  2B04               	goto	u3201
  6203     0B03  2B05               	goto	u3200
  6204     0B04                     u3201:
  6205     0B04  2B19               	goto	l2552
  6206     0B05                     u3200:
  6207     0B05                     l2548:
  6208     0B05  1FF3               	btfss	___xxtofl@val+3,7
  6209     0B06  2B08               	goto	u3211
  6210     0B07  2B09               	goto	u3210
  6211     0B08                     u3211:
  6212     0B08  2B19               	goto	l2552
  6213     0B09                     u3210:
  6214     0B09                     l2550:
  6215     0B09  0970               	comf	___xxtofl@val,w
  6216     0B0A  00FA               	movwf	___xxtofl@arg
  6217     0B0B  0971               	comf	___xxtofl@val+1,w
  6218     0B0C  00FB               	movwf	___xxtofl@arg+1
  6219     0B0D  0972               	comf	___xxtofl@val+2,w
  6220     0B0E  00FC               	movwf	___xxtofl@arg+2
  6221     0B0F  0973               	comf	___xxtofl@val+3,w
  6222     0B10  00FD               	movwf	___xxtofl@arg+3
  6223     0B11  0AFA               	incf	___xxtofl@arg,f
  6224     0B12  1903               	skipnz
  6225     0B13  0AFB               	incf	___xxtofl@arg+1,f
  6226     0B14  1903               	skipnz
  6227     0B15  0AFC               	incf	___xxtofl@arg+2,f
  6228     0B16  1903               	skipnz
  6229     0B17  0AFD               	incf	___xxtofl@arg+3,f
  6230     0B18  2B21               	goto	l743
  6231     0B19                     l2552:
  6232     0B19  0873               	movf	___xxtofl@val+3,w
  6233     0B1A  00FD               	movwf	___xxtofl@arg+3
  6234     0B1B  0872               	movf	___xxtofl@val+2,w
  6235     0B1C  00FC               	movwf	___xxtofl@arg+2
  6236     0B1D  0871               	movf	___xxtofl@val+1,w
  6237     0B1E  00FB               	movwf	___xxtofl@arg+1
  6238     0B1F  0870               	movf	___xxtofl@val,w
  6239     0B20  00FA               	movwf	___xxtofl@arg
  6240     0B21                     l743:
  6241     0B21  0873               	movf	___xxtofl@val+3,w
  6242     0B22  0472               	iorwf	___xxtofl@val+2,w
  6243     0B23  0471               	iorwf	___xxtofl@val+1,w
  6244     0B24  0470               	iorwf	___xxtofl@val,w
  6245     0B25  1D03               	skipz
  6246     0B26  2B28               	goto	u3221
  6247     0B27  2B29               	goto	u3220
  6248     0B28                     u3221:
  6249     0B28  2B32               	goto	l2558
  6250     0B29                     u3220:
  6251     0B29                     l2554:
  6252     0B29  3000               	movlw	0
  6253     0B2A  00F3               	movwf	?___xxtofl+3
  6254     0B2B  3000               	movlw	0
  6255     0B2C  00F2               	movwf	?___xxtofl+2
  6256     0B2D  3000               	movlw	0
  6257     0B2E  00F1               	movwf	?___xxtofl+1
  6258     0B2F  3000               	movlw	0
  6259     0B30  00F0               	movwf	?___xxtofl
  6260     0B31  2BB6               	goto	l745
  6261     0B32                     l2558:
  6262     0B32  3096               	movlw	150
  6263     0B33  00F9               	movwf	___xxtofl@exp
  6264     0B34  2B42               	goto	l2562
  6265     0B35                     l2560:
  6266     0B35  3001               	movlw	1
  6267     0B36  00F4               	movwf	??___xxtofl
  6268     0B37  0874               	movf	??___xxtofl,w
  6269     0B38  07F9               	addwf	___xxtofl@exp,f
  6270     0B39  3001               	movlw	1
  6271     0B3A                     u3235:
  6272     0B3A  1003               	clrc
  6273     0B3B  0CFD               	rrf	___xxtofl@arg+3,f
  6274     0B3C  0CFC               	rrf	___xxtofl@arg+2,f
  6275     0B3D  0CFB               	rrf	___xxtofl@arg+1,f
  6276     0B3E  0CFA               	rrf	___xxtofl@arg,f
  6277     0B3F  3EFF               	addlw	-1
  6278     0B40  1D03               	skipz
  6279     0B41  2B3A               	goto	u3235
  6280     0B42                     l2562:
  6281     0B42  30FE               	movlw	254
  6282     0B43  057D               	andwf	___xxtofl@arg+3,w
  6283     0B44  1D03               	btfss	3,2
  6284     0B45  2B47               	goto	u3241
  6285     0B46  2B48               	goto	u3240
  6286     0B47                     u3241:
  6287     0B47  2B35               	goto	l2560
  6288     0B48                     u3240:
  6289     0B48  2B64               	goto	l749
  6290     0B49                     l2564:
  6291     0B49  3001               	movlw	1
  6292     0B4A  00F4               	movwf	??___xxtofl
  6293     0B4B  0874               	movf	??___xxtofl,w
  6294     0B4C  07F9               	addwf	___xxtofl@exp,f
  6295     0B4D                     l2566:
  6296     0B4D  3001               	movlw	1
  6297     0B4E  07FA               	addwf	___xxtofl@arg,f
  6298     0B4F  3000               	movlw	0
  6299     0B50  1803               	skipnc
  6300     0B51  3001               	movlw	1
  6301     0B52  07FB               	addwf	___xxtofl@arg+1,f
  6302     0B53  3000               	movlw	0
  6303     0B54  1803               	skipnc
  6304     0B55  3001               	movlw	1
  6305     0B56  07FC               	addwf	___xxtofl@arg+2,f
  6306     0B57  3000               	movlw	0
  6307     0B58  1803               	skipnc
  6308     0B59  3001               	movlw	1
  6309     0B5A  07FD               	addwf	___xxtofl@arg+3,f
  6310     0B5B                     l2568:
  6311     0B5B  3001               	movlw	1
  6312     0B5C                     u3255:
  6313     0B5C  1003               	clrc
  6314     0B5D  0CFD               	rrf	___xxtofl@arg+3,f
  6315     0B5E  0CFC               	rrf	___xxtofl@arg+2,f
  6316     0B5F  0CFB               	rrf	___xxtofl@arg+1,f
  6317     0B60  0CFA               	rrf	___xxtofl@arg,f
  6318     0B61  3EFF               	addlw	-1
  6319     0B62  1D03               	skipz
  6320     0B63  2B5C               	goto	u3255
  6321     0B64                     l749:
  6322     0B64  30FF               	movlw	255
  6323     0B65  057D               	andwf	___xxtofl@arg+3,w
  6324     0B66  1D03               	btfss	3,2
  6325     0B67  2B69               	goto	u3261
  6326     0B68  2B6A               	goto	u3260
  6327     0B69                     u3261:
  6328     0B69  2B49               	goto	l2564
  6329     0B6A                     u3260:
  6330     0B6A  2B76               	goto	l2572
  6331     0B6B                     l2570:
  6332     0B6B  3001               	movlw	1
  6333     0B6C  02F9               	subwf	___xxtofl@exp,f
  6334     0B6D  3001               	movlw	1
  6335     0B6E  00F4               	movwf	??___xxtofl
  6336     0B6F                     u3275:
  6337     0B6F  1003               	clrc
  6338     0B70  0DFA               	rlf	___xxtofl@arg,f
  6339     0B71  0DFB               	rlf	___xxtofl@arg+1,f
  6340     0B72  0DFC               	rlf	___xxtofl@arg+2,f
  6341     0B73  0DFD               	rlf	___xxtofl@arg+3,f
  6342     0B74  0BF4               	decfsz	??___xxtofl,f
  6343     0B75  2B6F               	goto	u3275
  6344     0B76                     l2572:
  6345     0B76  1BFC               	btfsc	___xxtofl@arg+2,7
  6346     0B77  2B79               	goto	u3281
  6347     0B78  2B7A               	goto	u3280
  6348     0B79                     u3281:
  6349     0B79  2B80               	goto	l756
  6350     0B7A                     u3280:
  6351     0B7A                     l2574:
  6352     0B7A  3002               	movlw	2
  6353     0B7B  0279               	subwf	___xxtofl@exp,w
  6354     0B7C  1803               	skipnc
  6355     0B7D  2B7F               	goto	u3291
  6356     0B7E  2B80               	goto	u3290
  6357     0B7F                     u3291:
  6358     0B7F  2B6B               	goto	l2570
  6359     0B80                     u3290:
  6360     0B80                     l756:
  6361     0B80  1879               	btfsc	___xxtofl@exp,0
  6362     0B81  2B83               	goto	u3301
  6363     0B82  2B84               	goto	u3300
  6364     0B83                     u3301:
  6365     0B83  2B8C               	goto	l757
  6366     0B84                     u3300:
  6367     0B84                     l2576:
  6368     0B84  30FF               	movlw	255
  6369     0B85  05FA               	andwf	___xxtofl@arg,f
  6370     0B86  30FF               	movlw	255
  6371     0B87  05FB               	andwf	___xxtofl@arg+1,f
  6372     0B88  307F               	movlw	127
  6373     0B89  05FC               	andwf	___xxtofl@arg+2,f
  6374     0B8A  30FF               	movlw	255
  6375     0B8B  05FD               	andwf	___xxtofl@arg+3,f
  6376     0B8C                     l757:
  6377     0B8C  1003               	clrc
  6378     0B8D  0CF9               	rrf	___xxtofl@exp,f
  6379     0B8E                     l2578:
  6380     0B8E  0879               	movf	___xxtofl@exp,w
  6381     0B8F  00F4               	movwf	??___xxtofl
  6382     0B90  01F5               	clrf	??___xxtofl+1
  6383     0B91  01F6               	clrf	??___xxtofl+2
  6384     0B92  01F7               	clrf	??___xxtofl+3
  6385     0B93  3018               	movlw	24
  6386     0B94                     u3315:
  6387     0B94  1003               	clrc
  6388     0B95  0DF4               	rlf	??___xxtofl,f
  6389     0B96  0DF5               	rlf	??___xxtofl+1,f
  6390     0B97  0DF6               	rlf	??___xxtofl+2,f
  6391     0B98  0DF7               	rlf	??___xxtofl+3,f
  6392     0B99                     u3310:
  6393     0B99  3EFF               	addlw	-1
  6394     0B9A  1D03               	skipz
  6395     0B9B  2B94               	goto	u3315
  6396     0B9C  0874               	movf	??___xxtofl,w
  6397     0B9D  04FA               	iorwf	___xxtofl@arg,f
  6398     0B9E  0875               	movf	??___xxtofl+1,w
  6399     0B9F  04FB               	iorwf	___xxtofl@arg+1,f
  6400     0BA0  0876               	movf	??___xxtofl+2,w
  6401     0BA1  04FC               	iorwf	___xxtofl@arg+2,f
  6402     0BA2  0877               	movf	??___xxtofl+3,w
  6403     0BA3  04FD               	iorwf	___xxtofl@arg+3,f
  6404     0BA4                     l2580:
  6405     0BA4  0878               	movf	___xxtofl@sign,w
  6406     0BA5  1903               	btfsc	3,2
  6407     0BA6  2BA8               	goto	u3321
  6408     0BA7  2BA9               	goto	u3320
  6409     0BA8                     u3321:
  6410     0BA8  2BAE               	goto	l2586
  6411     0BA9                     u3320:
  6412     0BA9                     l2582:
  6413     0BA9  1FF3               	btfss	___xxtofl@val+3,7
  6414     0BAA  2BAC               	goto	u3331
  6415     0BAB  2BAD               	goto	u3330
  6416     0BAC                     u3331:
  6417     0BAC  2BAE               	goto	l2586
  6418     0BAD                     u3330:
  6419     0BAD                     l2584:
  6420     0BAD  17FD               	bsf	___xxtofl@arg+3,7
  6421     0BAE                     l2586:
  6422     0BAE  087D               	movf	___xxtofl@arg+3,w
  6423     0BAF  00F3               	movwf	?___xxtofl+3
  6424     0BB0  087C               	movf	___xxtofl@arg+2,w
  6425     0BB1  00F2               	movwf	?___xxtofl+2
  6426     0BB2  087B               	movf	___xxtofl@arg+1,w
  6427     0BB3  00F1               	movwf	?___xxtofl+1
  6428     0BB4  087A               	movf	___xxtofl@arg,w
  6429     0BB5  00F0               	movwf	?___xxtofl
  6430     0BB6                     l745:
  6431     0BB6  0008               	return
  6432     0BB7                     __end_of___xxtofl:
  6433                           
  6434                           	psect	text17
  6435     0003                     __ptext17:	
  6436 ;; *************** function ___fltol *****************
  6437 ;; Defined at:
  6438 ;;		line 43 in file "C:\Program Files\Microchip\xc8\v2.40\pic\sources\c90\common\fltol.c"
  6439 ;; Parameters:    Size  Location     Type
  6440 ;;  f1              4   20[BANK1 ] unsigned char 
  6441 ;; Auto vars:     Size  Location     Type
  6442 ;;  exp1            1   29[BANK1 ] unsigned char 
  6443 ;;  sign1           1   28[BANK1 ] unsigned char 
  6444 ;; Return value:  Size  Location     Type
  6445 ;;                  4   20[BANK1 ] long 
  6446 ;; Registers used:
  6447 ;;		wreg, status,2, status,0
  6448 ;; Tracked objects:
  6449 ;;		On entry : 0/0
  6450 ;;		On exit  : 0/0
  6451 ;;		Unchanged: 0/0
  6452 ;; Data sizes:     COMMON   BANK0   BANK1   BANK3   BANK2
  6453 ;;      Params:         0       0       4       0       0
  6454 ;;      Locals:         0       0       2       0       0
  6455 ;;      Temps:          0       0       4       0       0
  6456 ;;      Totals:         0       0      10       0       0
  6457 ;;Total ram usage:       10 bytes
  6458 ;; Hardware stack levels used: 1
  6459 ;; This function calls:
  6460 ;;		Nothing
  6461 ;; This function is called by:
  6462 ;;		_main
  6463 ;; This function uses a non-reentrant model
  6464 ;;
  6465                           
  6466     0003                     ___fltol:	
  6467                           ;psect for function ___fltol
  6468                           
  6469     0003                     l2510:	
  6470                           ;incstack = 0
  6471                           ; Regs used in ___fltol: [wreg+status,2+status,0]
  6472                           
  6473     0003  1003               	clrc
  6474     0004  1683               	bsf	3,5	;RP0=1, select bank1
  6475     0005  1303               	bcf	3,6	;RP1=0, select bank1
  6476     0006  0D36               	rlf	(___fltol@f1+2)^(0+128),w
  6477     0007  0D37               	rlf	(___fltol@f1+3)^(0+128),w
  6478     0008  00BD               	movwf	___fltol@exp1^(0+128)
  6479     0009  083D               	movf	___fltol@exp1^(0+128),w
  6480     000A  1D03               	btfss	3,2
  6481     000B  280D               	goto	u3101
  6482     000C  280E               	goto	u3100
  6483     000D                     u3101:
  6484     000D  2817               	goto	l2516
  6485     000E                     u3100:
  6486     000E                     l2512:
  6487     000E  3000               	movlw	0
  6488     000F  00B7               	movwf	(?___fltol+3)^(0+128)
  6489     0010  3000               	movlw	0
  6490     0011  00B6               	movwf	(?___fltol+2)^(0+128)
  6491     0012  3000               	movlw	0
  6492     0013  00B5               	movwf	(?___fltol+1)^(0+128)
  6493     0014  3000               	movlw	0
  6494     0015  00B4               	movwf	?___fltol^(0+128)
  6495     0016  287A               	goto	l496
  6496     0017                     l2516:
  6497     0017  0834               	movf	___fltol@f1^(0+128),w
  6498     0018  00B8               	movwf	??___fltol^(0+128)
  6499     0019  0835               	movf	(___fltol@f1+1)^(0+128),w
  6500     001A  00B9               	movwf	(??___fltol^(0+128)+1)
  6501     001B  0836               	movf	(___fltol@f1+2)^(0+128),w
  6502     001C  00BA               	movwf	(??___fltol^(0+128)+2)
  6503     001D  0837               	movf	(___fltol@f1+3)^(0+128),w
  6504     001E  00BB               	movwf	(??___fltol^(0+128)+3)
  6505     001F  301F               	movlw	31
  6506     0020                     u3115:
  6507     0020  1003               	clrc
  6508     0021  0CBB               	rrf	(??___fltol^(0+128)+3),f
  6509     0022  0CBA               	rrf	(??___fltol^(0+128)+2),f
  6510     0023  0CB9               	rrf	(??___fltol^(0+128)+1),f
  6511     0024  0CB8               	rrf	??___fltol^(0+128),f
  6512     0025                     u3110:
  6513     0025  3EFF               	addlw	-1
  6514     0026  1D03               	skipz
  6515     0027  2820               	goto	u3115
  6516     0028  0838               	movf	??___fltol^(0+128),w
  6517     0029  00BC               	movwf	___fltol@sign1^(0+128)
  6518     002A                     l2518:
  6519     002A  17B6               	bsf	(___fltol@f1^(0+128)+2),7
  6520     002B                     l2520:
  6521     002B  30FF               	movlw	255
  6522     002C  05B4               	andwf	___fltol@f1^(0+128),f
  6523     002D  30FF               	movlw	255
  6524     002E  05B5               	andwf	(___fltol@f1+1)^(0+128),f
  6525     002F  30FF               	movlw	255
  6526     0030  05B6               	andwf	(___fltol@f1+2)^(0+128),f
  6527     0031  3000               	movlw	0
  6528     0032  05B7               	andwf	(___fltol@f1+3)^(0+128),f
  6529     0033                     l2522:
  6530     0033  3096               	movlw	150
  6531     0034  02BD               	subwf	___fltol@exp1^(0+128),f
  6532     0035                     l2524:
  6533     0035  1FBD               	btfss	___fltol@exp1^(0+128),7
  6534     0036  2838               	goto	u3121
  6535     0037  2839               	goto	u3120
  6536     0038                     u3121:
  6537     0038  2853               	goto	l2534
  6538     0039                     u3120:
  6539     0039                     l2526:
  6540     0039  083D               	movf	___fltol@exp1^(0+128),w
  6541     003A  3A80               	xorlw	128
  6542     003B  3E97               	addlw	151
  6543     003C  1803               	skipnc
  6544     003D  283F               	goto	u3131
  6545     003E  2840               	goto	u3130
  6546     003F                     u3131:
  6547     003F  2841               	goto	l2532
  6548     0040                     u3130:
  6549     0040  280E               	goto	l2512
  6550     0041                     l2532:
  6551     0041  3001               	movlw	1
  6552     0042                     u3145:
  6553     0042  1003               	clrc
  6554     0043  0CB7               	rrf	(___fltol@f1+3)^(0+128),f
  6555     0044  0CB6               	rrf	(___fltol@f1+2)^(0+128),f
  6556     0045  0CB5               	rrf	(___fltol@f1+1)^(0+128),f
  6557     0046  0CB4               	rrf	___fltol@f1^(0+128),f
  6558     0047  3EFF               	addlw	-1
  6559     0048  1D03               	skipz
  6560     0049  2842               	goto	u3145
  6561     004A  3001               	movlw	1
  6562     004B  00B8               	movwf	??___fltol^(0+128)
  6563     004C  0838               	movf	??___fltol^(0+128),w
  6564     004D  07BD               	addwf	___fltol@exp1^(0+128),f
  6565     004E  1D03               	btfss	3,2
  6566     004F  2851               	goto	u3151
  6567     0050  2852               	goto	u3150
  6568     0051                     u3151:
  6569     0051  2841               	goto	l2532
  6570     0052                     u3150:
  6571     0052  286A               	goto	l2542
  6572     0053                     l2534:
  6573     0053  3020               	movlw	32
  6574     0054  023D               	subwf	___fltol@exp1^(0+128),w
  6575     0055  1C03               	skipc
  6576     0056  2858               	goto	u3161
  6577     0057  2859               	goto	u3160
  6578     0058                     u3161:
  6579     0058  2865               	goto	l503
  6580     0059                     u3160:
  6581     0059  280E               	goto	l2512
  6582     005A                     l2540:
  6583     005A  3001               	movlw	1
  6584     005B  00B8               	movwf	??___fltol^(0+128)
  6585     005C                     u3175:
  6586     005C  1003               	clrc
  6587     005D  0DB4               	rlf	___fltol@f1^(0+128),f
  6588     005E  0DB5               	rlf	(___fltol@f1+1)^(0+128),f
  6589     005F  0DB6               	rlf	(___fltol@f1+2)^(0+128),f
  6590     0060  0DB7               	rlf	(___fltol@f1+3)^(0+128),f
  6591     0061  0BB8               	decfsz	??___fltol^(0+128),f
  6592     0062  285C               	goto	u3175
  6593     0063  3001               	movlw	1
  6594     0064  02BD               	subwf	___fltol@exp1^(0+128),f
  6595     0065                     l503:
  6596     0065  083D               	movf	___fltol@exp1^(0+128),w
  6597     0066  1D03               	btfss	3,2
  6598     0067  2869               	goto	u3181
  6599     0068  286A               	goto	u3180
  6600     0069                     u3181:
  6601     0069  285A               	goto	l2540
  6602     006A                     u3180:
  6603     006A                     l2542:
  6604     006A  083C               	movf	___fltol@sign1^(0+128),w
  6605     006B  1903               	btfsc	3,2
  6606     006C  286E               	goto	u3191
  6607     006D  286F               	goto	u3190
  6608     006E                     u3191:
  6609     006E  287A               	goto	l506
  6610     006F                     u3190:
  6611     006F                     l2544:
  6612     006F  09B4               	comf	___fltol@f1^(0+128),f
  6613     0070  09B5               	comf	(___fltol@f1+1)^(0+128),f
  6614     0071  09B6               	comf	(___fltol@f1+2)^(0+128),f
  6615     0072  09B7               	comf	(___fltol@f1+3)^(0+128),f
  6616     0073  0AB4               	incf	___fltol@f1^(0+128),f
  6617     0074  1903               	skipnz
  6618     0075  0AB5               	incf	(___fltol@f1+1)^(0+128),f
  6619     0076  1903               	skipnz
  6620     0077  0AB6               	incf	(___fltol@f1+2)^(0+128),f
  6621     0078  1903               	skipnz
  6622     0079  0AB7               	incf	(___fltol@f1+3)^(0+128),f
  6623     007A                     l506:
  6624     007A                     l496:
  6625     007A  0008               	return
  6626     007B                     __end_of___fltol:
  6627                           
  6628                           	psect	text18
  6629     0949                     __ptext18:	
  6630 ;; *************** function _UART_write_char *****************
  6631 ;; Defined at:
  6632 ;;		line 38 in file "C:/Users/Bryan Ortiz/Desktop/Digital2/LAB1D2.X/USART.c"
  6633 ;; Parameters:    Size  Location     Type
  6634 ;;  c               2    9[BANK0 ] PTR unsigned char 
  6635 ;;		 -> STR_9(2), STR_8(26), STR_7(43), STR_6(2), 
  6636 ;;		 -> buffer(17), STR_5(17), STR_4(21), STR_3(34), 
  6637 ;;		 -> STR_2(43), STR_1(4), 
  6638 ;; Auto vars:     Size  Location     Type
  6639 ;;		None
  6640 ;; Return value:  Size  Location     Type
  6641 ;;                  1    wreg      void 
  6642 ;; Registers used:
  6643 ;;		wreg, fsr0l, fsr0h, btemp+1, pclath
  6644 ;; Tracked objects:
  6645 ;;		On entry : 0/0
  6646 ;;		On exit  : 0/0
  6647 ;;		Unchanged: 0/0
  6648 ;; Data sizes:     COMMON   BANK0   BANK1   BANK3   BANK2
  6649 ;;      Params:         0       2       0       0       0
  6650 ;;      Locals:         0       0       0       0       0
  6651 ;;      Temps:          0       0       0       0       0
  6652 ;;      Totals:         0       2       0       0       0
  6653 ;;Total ram usage:        2 bytes
  6654 ;; Hardware stack levels used: 2
  6655 ;; This function calls:
  6656 ;;		Nothing
  6657 ;; This function is called by:
  6658 ;;		_main
  6659 ;; This function uses a non-reentrant model
  6660 ;;
  6661                           
  6662     0949                     _UART_write_char:	
  6663                           ;psect for function _UART_write_char
  6664                           
  6665     0949                     l2442:	
  6666                           ;incstack = 0
  6667                           ; Regs used in _UART_write_char: [wreg-fsr0h+btemp+1+pclath]
  6668                           
  6669                           
  6670                           ;C:/Users/Bryan Ortiz/Desktop/Digital2/LAB1D2.X/USART.c: 39:     while(*c!= '\0'){
  6671     0949  295E               	goto	l2448
  6672     094A                     l217:
  6673     094A  1E0C               	btfss	12,4	;volatile
  6674     094B  294D               	goto	u3021
  6675     094C  294E               	goto	u3020
  6676     094D                     u3021:
  6677     094D  294A               	goto	l217
  6678     094E                     u3020:
  6679     094E                     l2444:
  6680                           
  6681                           ;C:/Users/Bryan Ortiz/Desktop/Digital2/LAB1D2.X/USART.c: 41:         TXREG = *c;
  6682     094E  082A               	movf	UART_write_char@c+1,w
  6683     094F  00FF               	movwf	btemp+1
  6684     0950  0829               	movf	UART_write_char@c,w
  6685     0951  0084               	movwf	4
  6686     0952  120A  158A  2000  120A  158A  	fcall	stringtab
  6687     0957  0099               	movwf	25	;volatile
  6688     0958                     l2446:
  6689                           
  6690                           ;C:/Users/Bryan Ortiz/Desktop/Digital2/LAB1D2.X/USART.c: 42:         c++;
  6691     0958  3001               	movlw	1
  6692     0959  07A9               	addwf	UART_write_char@c,f
  6693     095A  1803               	skipnc
  6694     095B  0AAA               	incf	UART_write_char@c+1,f
  6695     095C  3000               	movlw	0
  6696     095D  07AA               	addwf	UART_write_char@c+1,f
  6697     095E                     l2448:
  6698                           
  6699                           ;C:/Users/Bryan Ortiz/Desktop/Digital2/LAB1D2.X/USART.c: 39:     while(*c!= '\0'){
  6700     095E  1283               	bcf	3,5	;RP0=0, select bank0
  6701     095F  1303               	bcf	3,6	;RP1=0, select bank0
  6702     0960  082A               	movf	UART_write_char@c+1,w
  6703     0961  00FF               	movwf	btemp+1
  6704     0962  0829               	movf	UART_write_char@c,w
  6705     0963  0084               	movwf	4
  6706     0964  120A  158A  2000  120A  158A  	fcall	stringtab
  6707     0969  3A00               	xorlw	0
  6708     096A  1D03               	skipz
  6709     096B  296D               	goto	u3031
  6710     096C  296E               	goto	u3030
  6711     096D                     u3031:
  6712     096D  294A               	goto	l217
  6713     096E                     u3030:
  6714     096E                     l221:
  6715     096E  0008               	return
  6716     096F                     __end_of_UART_write_char:
  6717                           
  6718                           	psect	text19
  6719     176B                     __ptext19:	
  6720 ;; *************** function _UART_read_char *****************
  6721 ;; Defined at:
  6722 ;;		line 46 in file "C:/Users/Bryan Ortiz/Desktop/Digital2/LAB1D2.X/USART.c"
  6723 ;; Parameters:    Size  Location     Type
  6724 ;;		None
  6725 ;; Auto vars:     Size  Location     Type
  6726 ;;		None
  6727 ;; Return value:  Size  Location     Type
  6728 ;;                  1    wreg      unsigned char 
  6729 ;; Registers used:
  6730 ;;		wreg
  6731 ;; Tracked objects:
  6732 ;;		On entry : 0/0
  6733 ;;		On exit  : 0/0
  6734 ;;		Unchanged: 0/0
  6735 ;; Data sizes:     COMMON   BANK0   BANK1   BANK3   BANK2
  6736 ;;      Params:         0       0       0       0       0
  6737 ;;      Locals:         0       0       0       0       0
  6738 ;;      Temps:          0       0       0       0       0
  6739 ;;      Totals:         0       0       0       0       0
  6740 ;;Total ram usage:        0 bytes
  6741 ;; Hardware stack levels used: 1
  6742 ;; This function calls:
  6743 ;;		Nothing
  6744 ;; This function is called by:
  6745 ;;		_main
  6746 ;; This function uses a non-reentrant model
  6747 ;;
  6748                           
  6749     176B                     _UART_read_char:	
  6750                           ;psect for function _UART_read_char
  6751                           
  6752     176B                     l2450:	
  6753                           ;incstack = 0
  6754                           ; Regs used in _UART_read_char: [wreg]
  6755                           
  6756                           
  6757                           ;C:/Users/Bryan Ortiz/Desktop/Digital2/LAB1D2.X/USART.c: 47:     return RCREG;
  6758     176B  1283               	bcf	3,5	;RP0=0, select bank0
  6759     176C  1303               	bcf	3,6	;RP1=0, select bank0
  6760     176D  081A               	movf	26,w	;volatile
  6761     176E                     l224:
  6762     176E  0008               	return
  6763     176F                     __end_of_UART_read_char:
  6764                           
  6765                           	psect	text20
  6766     0924                     __ptext20:	
  6767 ;; *************** function _Lcd_Write_String *****************
  6768 ;; Defined at:
  6769 ;;		line 66 in file "C:/Users/Bryan Ortiz/Desktop/Digital2/Lab2D2.X/LCD8B.c"
  6770 ;; Parameters:    Size  Location     Type
  6771 ;;  a               1    wreg     PTR unsigned char 
  6772 ;;		 -> STR_11(10), STR_10(6), 
  6773 ;; Auto vars:     Size  Location     Type
  6774 ;;  a               1    5[COMMON] PTR unsigned char 
  6775 ;;		 -> STR_11(10), STR_10(6), 
  6776 ;;  i               2    3[COMMON] int 
  6777 ;; Return value:  Size  Location     Type
  6778 ;;                  1    wreg      void 
  6779 ;; Registers used:
  6780 ;;		wreg, fsr0l, fsr0h, status,2, status,0, pclath, cstack
  6781 ;; Tracked objects:
  6782 ;;		On entry : 0/0
  6783 ;;		On exit  : 0/0
  6784 ;;		Unchanged: 0/0
  6785 ;; Data sizes:     COMMON   BANK0   BANK1   BANK3   BANK2
  6786 ;;      Params:         0       0       0       0       0
  6787 ;;      Locals:         3       0       0       0       0
  6788 ;;      Temps:          0       0       0       0       0
  6789 ;;      Totals:         3       0       0       0       0
  6790 ;;Total ram usage:        3 bytes
  6791 ;; Hardware stack levels used: 1
  6792 ;; Hardware stack levels required when called: 2
  6793 ;; This function calls:
  6794 ;;		_Lcd_Write_Char
  6795 ;; This function is called by:
  6796 ;;		_main
  6797 ;; This function uses a non-reentrant model
  6798 ;;
  6799                           
  6800     0924                     _Lcd_Write_String:	
  6801                           ;psect for function _Lcd_Write_String
  6802                           
  6803                           
  6804                           ;incstack = 0
  6805                           ; Regs used in _Lcd_Write_String: [wreg-fsr0h+status,2+status,0+pclath+cstack]
  6806                           ;Lcd_Write_String@a stored from wreg
  6807     0924  00F5               	movwf	Lcd_Write_String@a
  6808     0925                     l2502:
  6809                           
  6810                           ;C:/Users/Bryan Ortiz/Desktop/Digital2/Lab2D2.X/LCD8B.c: 67:     int i;;C:/Users/Bryan O
      +                          rtiz/Desktop/Digital2/Lab2D2.X/LCD8B.c: 68:     for (i = 0; a[i] != '\0'; i++)
  6811     0925  01F3               	clrf	Lcd_Write_String@i
  6812     0926  01F4               	clrf	Lcd_Write_String@i+1
  6813     0927  293B               	goto	l2508
  6814     0928                     l2504:
  6815                           
  6816                           ;C:/Users/Bryan Ortiz/Desktop/Digital2/Lab2D2.X/LCD8B.c: 69:         Lcd_Write_Char(a[i]
      +                          );
  6817     0928  0873               	movf	Lcd_Write_String@i,w
  6818     0929  0775               	addwf	Lcd_Write_String@a,w
  6819     092A  0084               	movwf	4
  6820     092B  120A  158A  200A  120A  158A  	fcall	stringdir
  6821     0930  160A  118A  279E  120A  158A  	fcall	_Lcd_Write_Char
  6822     0935                     l2506:
  6823     0935  3001               	movlw	1
  6824     0936  07F3               	addwf	Lcd_Write_String@i,f
  6825     0937  1803               	skipnc
  6826     0938  0AF4               	incf	Lcd_Write_String@i+1,f
  6827     0939  3000               	movlw	0
  6828     093A  07F4               	addwf	Lcd_Write_String@i+1,f
  6829     093B                     l2508:
  6830     093B  0873               	movf	Lcd_Write_String@i,w
  6831     093C  0775               	addwf	Lcd_Write_String@a,w
  6832     093D  0084               	movwf	4
  6833     093E  120A  158A  200A  120A  158A  	fcall	stringdir
  6834     0943  3A00               	xorlw	0
  6835     0944  1D03               	skipz
  6836     0945  2947               	goto	u3091
  6837     0946  2948               	goto	u3090
  6838     0947                     u3091:
  6839     0947  2928               	goto	l2504
  6840     0948                     u3090:
  6841     0948                     l182:
  6842     0948  0008               	return
  6843     0949                     __end_of_Lcd_Write_String:
  6844                           
  6845                           	psect	text21
  6846     179E                     __ptext21:	
  6847 ;; *************** function _Lcd_Write_Char *****************
  6848 ;; Defined at:
  6849 ;;		line 58 in file "C:/Users/Bryan Ortiz/Desktop/Digital2/Lab2D2.X/LCD8B.c"
  6850 ;; Parameters:    Size  Location     Type
  6851 ;;  a               1    wreg     unsigned char 
  6852 ;; Auto vars:     Size  Location     Type
  6853 ;;  a               1    2[COMMON] unsigned char 
  6854 ;; Return value:  Size  Location     Type
  6855 ;;                  1    wreg      void 
  6856 ;; Registers used:
  6857 ;;		wreg, status,2, status,0, pclath, cstack
  6858 ;; Tracked objects:
  6859 ;;		On entry : 0/0
  6860 ;;		On exit  : 0/0
  6861 ;;		Unchanged: 0/0
  6862 ;; Data sizes:     COMMON   BANK0   BANK1   BANK3   BANK2
  6863 ;;      Params:         0       0       0       0       0
  6864 ;;      Locals:         1       0       0       0       0
  6865 ;;      Temps:          1       0       0       0       0
  6866 ;;      Totals:         2       0       0       0       0
  6867 ;;Total ram usage:        2 bytes
  6868 ;; Hardware stack levels used: 1
  6869 ;; Hardware stack levels required when called: 1
  6870 ;; This function calls:
  6871 ;;		_Lcd_Port
  6872 ;; This function is called by:
  6873 ;;		_main
  6874 ;;		_Lcd_Write_String
  6875 ;; This function uses a non-reentrant model
  6876 ;;
  6877                           
  6878     179E                     _Lcd_Write_Char:	
  6879                           ;psect for function _Lcd_Write_Char
  6880                           
  6881                           
  6882                           ;incstack = 0
  6883                           ; Regs used in _Lcd_Write_Char: [wreg+status,2+status,0+pclath+cstack]
  6884                           ;Lcd_Write_Char@a stored from wreg
  6885     179E  00F2               	movwf	Lcd_Write_Char@a
  6886     179F                     l2042:
  6887                           
  6888                           ;C:/Users/Bryan Ortiz/Desktop/Digital2/Lab2D2.X/LCD8B.c: 59:     PORTEbits.RE1 = 1;
  6889     179F  1283               	bcf	3,5	;RP0=0, select bank0
  6890     17A0  1303               	bcf	3,6	;RP1=0, select bank0
  6891     17A1  1489               	bsf	9,1	;volatile
  6892     17A2                     l2044:
  6893                           
  6894                           ;C:/Users/Bryan Ortiz/Desktop/Digital2/Lab2D2.X/LCD8B.c: 60:     Lcd_Port(a);
  6895     17A2  0872               	movf	Lcd_Write_Char@a,w
  6896     17A3  160A  118A  276F  160A  118A  	fcall	_Lcd_Port
  6897     17A8                     l2046:
  6898                           
  6899                           ;C:/Users/Bryan Ortiz/Desktop/Digital2/Lab2D2.X/LCD8B.c: 61:     RE2 = 1;
  6900     17A8  1283               	bcf	3,5	;RP0=0, select bank0
  6901     17A9  1303               	bcf	3,6	;RP1=0, select bank0
  6902     17AA  1509               	bsf	9,2	;volatile
  6903     17AB                     l2048:
  6904                           
  6905                           ;C:/Users/Bryan Ortiz/Desktop/Digital2/Lab2D2.X/LCD8B.c: 62:     _delay((unsigned long)(
      +                          (40)*(8000000/4000000.0)));
  6906     17AB  301A               	movlw	26
  6907     17AC  00F1               	movwf	??_Lcd_Write_Char
  6908     17AD                     u3467:
  6909     17AD  0BF1               	decfsz	??_Lcd_Write_Char,f
  6910     17AE  2FAD               	goto	u3467
  6911     17AF  0000               	nop
  6912     17B0                     l2050:
  6913                           
  6914                           ;C:/Users/Bryan Ortiz/Desktop/Digital2/Lab2D2.X/LCD8B.c: 63:     RE2 = 0;
  6915     17B0  1283               	bcf	3,5	;RP0=0, select bank0
  6916     17B1  1303               	bcf	3,6	;RP1=0, select bank0
  6917     17B2  1109               	bcf	9,2	;volatile
  6918     17B3                     l176:
  6919     17B3  0008               	return
  6920     17B4                     __end_of_Lcd_Write_Char:
  6921                           
  6922                           	psect	text22
  6923     08E0                     __ptext22:	
  6924 ;; *************** function _Lcd_Set_Cursor *****************
  6925 ;; Defined at:
  6926 ;;		line 30 in file "C:/Users/Bryan Ortiz/Desktop/Digital2/Lab2D2.X/LCD8B.c"
  6927 ;; Parameters:    Size  Location     Type
  6928 ;;  a               1    wreg     unsigned char 
  6929 ;;  b               1    4[COMMON] unsigned char 
  6930 ;; Auto vars:     Size  Location     Type
  6931 ;;  a               1    5[COMMON] unsigned char 
  6932 ;;  temp            1    6[COMMON] unsigned char 
  6933 ;;  y               1    0        unsigned char 
  6934 ;;  z               1    0        unsigned char 
  6935 ;; Return value:  Size  Location     Type
  6936 ;;                  1    wreg      void 
  6937 ;; Registers used:
  6938 ;;		wreg, status,2, status,0, pclath, cstack
  6939 ;; Tracked objects:
  6940 ;;		On entry : 0/0
  6941 ;;		On exit  : 0/0
  6942 ;;		Unchanged: 0/0
  6943 ;; Data sizes:     COMMON   BANK0   BANK1   BANK3   BANK2
  6944 ;;      Params:         1       0       0       0       0
  6945 ;;      Locals:         2       0       0       0       0
  6946 ;;      Temps:          0       0       0       0       0
  6947 ;;      Totals:         3       0       0       0       0
  6948 ;;Total ram usage:        3 bytes
  6949 ;; Hardware stack levels used: 1
  6950 ;; Hardware stack levels required when called: 2
  6951 ;; This function calls:
  6952 ;;		_Lcd_Cmd
  6953 ;; This function is called by:
  6954 ;;		_main
  6955 ;; This function uses a non-reentrant model
  6956 ;;
  6957                           
  6958     08E0                     _Lcd_Set_Cursor:	
  6959                           ;psect for function _Lcd_Set_Cursor
  6960                           
  6961                           
  6962                           ;incstack = 0
  6963                           ; Regs used in _Lcd_Set_Cursor: [wreg+status,2+status,0+pclath+cstack]
  6964                           ;Lcd_Set_Cursor@a stored from wreg
  6965     08E0  00F5               	movwf	Lcd_Set_Cursor@a
  6966     08E1                     l2490:
  6967                           
  6968                           ;C:/Users/Bryan Ortiz/Desktop/Digital2/Lab2D2.X/LCD8B.c: 31:     char temp, z, y;;C:/Use
      +                          rs/Bryan Ortiz/Desktop/Digital2/Lab2D2.X/LCD8B.c: 32:     if (a == 1) {
  6969     08E1  0375               	decf	Lcd_Set_Cursor@a,w
  6970     08E2  1D03               	btfss	3,2
  6971     08E3  28E5               	goto	u3071
  6972     08E4  28E6               	goto	u3070
  6973     08E5                     u3071:
  6974     08E5  28F0               	goto	l2496
  6975     08E6                     u3070:
  6976     08E6                     l2492:
  6977                           
  6978                           ;C:/Users/Bryan Ortiz/Desktop/Digital2/Lab2D2.X/LCD8B.c: 33:         temp = 0x80 + b - 1
      +                          ;
  6979     08E6  0874               	movf	Lcd_Set_Cursor@b,w
  6980     08E7  3E7F               	addlw	127
  6981     08E8  00F6               	movwf	Lcd_Set_Cursor@temp
  6982     08E9                     l2494:
  6983                           
  6984                           ;C:/Users/Bryan Ortiz/Desktop/Digital2/Lab2D2.X/LCD8B.c: 34:         Lcd_Cmd(temp);
  6985     08E9  0876               	movf	Lcd_Set_Cursor@temp,w
  6986     08EA  160A  118A  27CC  120A  158A  	fcall	_Lcd_Cmd
  6987                           
  6988                           ;C:/Users/Bryan Ortiz/Desktop/Digital2/Lab2D2.X/LCD8B.c: 35:     } else if (a == 2) {
  6989     08EF  28FF               	goto	l170
  6990     08F0                     l2496:
  6991     08F0  3002               	movlw	2
  6992     08F1  0675               	xorwf	Lcd_Set_Cursor@a,w
  6993     08F2  1D03               	btfss	3,2
  6994     08F3  28F5               	goto	u3081
  6995     08F4  28F6               	goto	u3080
  6996     08F5                     u3081:
  6997     08F5  28FF               	goto	l170
  6998     08F6                     u3080:
  6999     08F6                     l2498:
  7000                           
  7001                           ;C:/Users/Bryan Ortiz/Desktop/Digital2/Lab2D2.X/LCD8B.c: 36:         temp = 0xC0 + b - 1
      +                          ;
  7002     08F6  0874               	movf	Lcd_Set_Cursor@b,w
  7003     08F7  3EBF               	addlw	191
  7004     08F8  00F6               	movwf	Lcd_Set_Cursor@temp
  7005     08F9                     l2500:
  7006                           
  7007                           ;C:/Users/Bryan Ortiz/Desktop/Digital2/Lab2D2.X/LCD8B.c: 37:         Lcd_Cmd(temp);
  7008     08F9  0876               	movf	Lcd_Set_Cursor@temp,w
  7009     08FA  160A  118A  27CC  120A  158A  	fcall	_Lcd_Cmd
  7010     08FF                     l170:
  7011     08FF  0008               	return
  7012     0900                     __end_of_Lcd_Set_Cursor:
  7013                           
  7014                           	psect	text23
  7015     177D                     __ptext23:	
  7016 ;; *************** function _Lcd_Clear *****************
  7017 ;; Defined at:
  7018 ;;		line 25 in file "C:/Users/Bryan Ortiz/Desktop/Digital2/Lab2D2.X/LCD8B.c"
  7019 ;; Parameters:    Size  Location     Type
  7020 ;;		None
  7021 ;; Auto vars:     Size  Location     Type
  7022 ;;		None
  7023 ;; Return value:  Size  Location     Type
  7024 ;;                  1    wreg      void 
  7025 ;; Registers used:
  7026 ;;		wreg, status,2, status,0, pclath, cstack
  7027 ;; Tracked objects:
  7028 ;;		On entry : 0/0
  7029 ;;		On exit  : 0/0
  7030 ;;		Unchanged: 0/0
  7031 ;; Data sizes:     COMMON   BANK0   BANK1   BANK3   BANK2
  7032 ;;      Params:         0       0       0       0       0
  7033 ;;      Locals:         0       0       0       0       0
  7034 ;;      Temps:          0       0       0       0       0
  7035 ;;      Totals:         0       0       0       0       0
  7036 ;;Total ram usage:        0 bytes
  7037 ;; Hardware stack levels used: 1
  7038 ;; Hardware stack levels required when called: 2
  7039 ;; This function calls:
  7040 ;;		_Lcd_Cmd
  7041 ;; This function is called by:
  7042 ;;		_main
  7043 ;; This function uses a non-reentrant model
  7044 ;;
  7045                           
  7046     177D                     _Lcd_Clear:	
  7047                           ;psect for function _Lcd_Clear
  7048                           
  7049     177D                     l2488:	
  7050                           ;incstack = 0
  7051                           ; Regs used in _Lcd_Clear: [wreg+status,2+status,0+pclath+cstack]
  7052                           
  7053                           
  7054                           ;C:/Users/Bryan Ortiz/Desktop/Digital2/Lab2D2.X/LCD8B.c: 26:     Lcd_Cmd(0);
  7055     177D  3000               	movlw	0
  7056     177E  160A  118A  27CC  160A  118A  	fcall	_Lcd_Cmd
  7057                           
  7058                           ;C:/Users/Bryan Ortiz/Desktop/Digital2/Lab2D2.X/LCD8B.c: 27:     Lcd_Cmd(1);
  7059     1783  3001               	movlw	1
  7060     1784  160A  118A  27CC  160A  118A  	fcall	_Lcd_Cmd
  7061     1789                     l164:
  7062     1789  0008               	return
  7063     178A                     __end_of_Lcd_Clear:
  7064                           
  7065                           	psect	text24
  7066     17CC                     __ptext24:	
  7067 ;; *************** function _Lcd_Cmd *****************
  7068 ;; Defined at:
  7069 ;;		line 17 in file "C:/Users/Bryan Ortiz/Desktop/Digital2/Lab2D2.X/LCD8B.c"
  7070 ;; Parameters:    Size  Location     Type
  7071 ;;  a               1    wreg     unsigned char 
  7072 ;; Auto vars:     Size  Location     Type
  7073 ;;  a               1    3[COMMON] unsigned char 
  7074 ;; Return value:  Size  Location     Type
  7075 ;;                  1    wreg      void 
  7076 ;; Registers used:
  7077 ;;		wreg, status,2, status,0, pclath, cstack
  7078 ;; Tracked objects:
  7079 ;;		On entry : 0/0
  7080 ;;		On exit  : 0/0
  7081 ;;		Unchanged: 0/0
  7082 ;; Data sizes:     COMMON   BANK0   BANK1   BANK3   BANK2
  7083 ;;      Params:         0       0       0       0       0
  7084 ;;      Locals:         1       0       0       0       0
  7085 ;;      Temps:          2       0       0       0       0
  7086 ;;      Totals:         3       0       0       0       0
  7087 ;;Total ram usage:        3 bytes
  7088 ;; Hardware stack levels used: 1
  7089 ;; Hardware stack levels required when called: 1
  7090 ;; This function calls:
  7091 ;;		_Lcd_Port
  7092 ;; This function is called by:
  7093 ;;		_Lcd_Clear
  7094 ;;		_Lcd_Set_Cursor
  7095 ;;		_Lcd_Init
  7096 ;;		_Lcd_Shift_Right
  7097 ;;		_Lcd_Shift_Left
  7098 ;; This function uses a non-reentrant model
  7099 ;;
  7100                           
  7101     17CC                     _Lcd_Cmd:	
  7102                           ;psect for function _Lcd_Cmd
  7103                           
  7104                           
  7105                           ;incstack = 0
  7106                           ; Regs used in _Lcd_Cmd: [wreg+status,2+status,0+pclath+cstack]
  7107                           ;Lcd_Cmd@a stored from wreg
  7108     17CC  00F3               	movwf	Lcd_Cmd@a
  7109     17CD                     l1802:
  7110                           
  7111                           ;C:/Users/Bryan Ortiz/Desktop/Digital2/Lab2D2.X/LCD8B.c: 18:     PORTEbits.RE1 = 0;
  7112     17CD  1283               	bcf	3,5	;RP0=0, select bank0
  7113     17CE  1303               	bcf	3,6	;RP1=0, select bank0
  7114     17CF  1089               	bcf	9,1	;volatile
  7115     17D0                     l1804:
  7116                           
  7117                           ;C:/Users/Bryan Ortiz/Desktop/Digital2/Lab2D2.X/LCD8B.c: 19:     Lcd_Port(a);
  7118     17D0  0873               	movf	Lcd_Cmd@a,w
  7119     17D1  160A  118A  276F  160A  118A  	fcall	_Lcd_Port
  7120     17D6                     l1806:
  7121                           
  7122                           ;C:/Users/Bryan Ortiz/Desktop/Digital2/Lab2D2.X/LCD8B.c: 20:     RE2 = 1;
  7123     17D6  1283               	bcf	3,5	;RP0=0, select bank0
  7124     17D7  1303               	bcf	3,6	;RP1=0, select bank0
  7125     17D8  1509               	bsf	9,2	;volatile
  7126     17D9                     l1808:
  7127                           
  7128                           ;C:/Users/Bryan Ortiz/Desktop/Digital2/Lab2D2.X/LCD8B.c: 21:     _delay((unsigned long)(
      +                          (4)*(8000000/4000.0)));
  7129     17D9  300B               	movlw	11
  7130     17DA  00F2               	movwf	??_Lcd_Cmd+1
  7131     17DB  3062               	movlw	98
  7132     17DC  00F1               	movwf	??_Lcd_Cmd
  7133     17DD                     u3477:
  7134     17DD  0BF1               	decfsz	??_Lcd_Cmd,f
  7135     17DE  2FDD               	goto	u3477
  7136     17DF  0BF2               	decfsz	??_Lcd_Cmd+1,f
  7137     17E0  2FDD               	goto	u3477
  7138     17E1  0000               	nop
  7139     17E2                     l1810:
  7140                           
  7141                           ;C:/Users/Bryan Ortiz/Desktop/Digital2/Lab2D2.X/LCD8B.c: 22:     RE2 = 0;
  7142     17E2  1283               	bcf	3,5	;RP0=0, select bank0
  7143     17E3  1303               	bcf	3,6	;RP1=0, select bank0
  7144     17E4  1109               	bcf	9,2	;volatile
  7145     17E5                     l161:
  7146     17E5  0008               	return
  7147     17E6                     __end_of_Lcd_Cmd:
  7148                           
  7149                           	psect	text25
  7150     176F                     __ptext25:	
  7151 ;; *************** function _Lcd_Port *****************
  7152 ;; Defined at:
  7153 ;;		line 13 in file "C:/Users/Bryan Ortiz/Desktop/Digital2/Lab2D2.X/LCD8B.c"
  7154 ;; Parameters:    Size  Location     Type
  7155 ;;  a               1    wreg     unsigned char 
  7156 ;; Auto vars:     Size  Location     Type
  7157 ;;  a               1    0[COMMON] unsigned char 
  7158 ;; Return value:  Size  Location     Type
  7159 ;;                  1    wreg      void 
  7160 ;; Registers used:
  7161 ;;		wreg
  7162 ;; Tracked objects:
  7163 ;;		On entry : 0/0
  7164 ;;		On exit  : 0/0
  7165 ;;		Unchanged: 0/0
  7166 ;; Data sizes:     COMMON   BANK0   BANK1   BANK3   BANK2
  7167 ;;      Params:         0       0       0       0       0
  7168 ;;      Locals:         1       0       0       0       0
  7169 ;;      Temps:          0       0       0       0       0
  7170 ;;      Totals:         1       0       0       0       0
  7171 ;;Total ram usage:        1 bytes
  7172 ;; Hardware stack levels used: 1
  7173 ;; This function calls:
  7174 ;;		Nothing
  7175 ;; This function is called by:
  7176 ;;		_Lcd_Cmd
  7177 ;;		_Lcd_Init
  7178 ;;		_Lcd_Write_Char
  7179 ;; This function uses a non-reentrant model
  7180 ;;
  7181                           
  7182     176F                     _Lcd_Port:	
  7183                           ;psect for function _Lcd_Port
  7184                           
  7185                           
  7186                           ;incstack = 0
  7187                           ; Regs used in _Lcd_Port: [wreg]
  7188                           ;Lcd_Port@a stored from wreg
  7189     176F  00F0               	movwf	Lcd_Port@a
  7190     1770                     l1800:
  7191                           
  7192                           ;C:/Users/Bryan Ortiz/Desktop/Digital2/Lab2D2.X/LCD8B.c: 14:     PORTD = a;
  7193     1770  0870               	movf	Lcd_Port@a,w
  7194     1771  1283               	bcf	3,5	;RP0=0, select bank0
  7195     1772  1303               	bcf	3,6	;RP1=0, select bank0
  7196     1773  0088               	movwf	8	;volatile
  7197     1774                     l158:
  7198     1774  0008               	return
  7199     1775                     __end_of_Lcd_Port:
  7200     007E                     btemp	set	126	;btemp
  7201     007E                     wtemp0	set	126
  7202                           
  7203                           	psect	idloc
  7204                           
  7205                           ;Config register IDLOC0 @ 0x2000
  7206                           ;	unspecified, using default values
  7207     2000                     	org	8192
  7208     2000  3FFF               	dw	16383
  7209                           
  7210                           ;Config register IDLOC1 @ 0x2001
  7211                           ;	unspecified, using default values
  7212     2001                     	org	8193
  7213     2001  3FFF               	dw	16383
  7214                           
  7215                           ;Config register IDLOC2 @ 0x2002
  7216                           ;	unspecified, using default values
  7217     2002                     	org	8194
  7218     2002  3FFF               	dw	16383
  7219                           
  7220                           ;Config register IDLOC3 @ 0x2003
  7221                           ;	unspecified, using default values
  7222     2003                     	org	8195
  7223     2003  3FFF               	dw	16383
  7224                           
  7225                           	psect	config
  7226                           
  7227                           ;Config register CONFIG1 @ 0x2007
  7228                           ;	Oscillator Selection bits
  7229                           ;	FOSC = INTRC_NOCLKOUT, INTOSCIO oscillator: I/O function on RA6/OSC2/CLKOUT pin, I/O f
      +                          unction on RA7/OSC1/CLKIN
  7230                           ;	Watchdog Timer Enable bit
  7231                           ;	WDTE = OFF, WDT disabled and can be enabled by SWDTEN bit of the WDTCON register
  7232                           ;	Power-up Timer Enable bit
  7233                           ;	PWRTE = OFF, PWRT disabled
  7234                           ;	RE3/MCLR pin function select bit
  7235                           ;	MCLRE = OFF, RE3/MCLR pin function is digital input, MCLR internally tied to VDD
  7236                           ;	Code Protection bit
  7237                           ;	CP = OFF, Program memory code protection is disabled
  7238                           ;	Data Code Protection bit
  7239                           ;	CPD = OFF, Data memory code protection is disabled
  7240                           ;	Brown Out Reset Selection bits
  7241                           ;	BOREN = OFF, BOR disabled
  7242                           ;	Internal External Switchover bit
  7243                           ;	IESO = OFF, Internal/External Switchover mode is disabled
  7244                           ;	Fail-Safe Clock Monitor Enabled bit
  7245                           ;	FCMEN = OFF, Fail-Safe Clock Monitor is disabled
  7246                           ;	Low Voltage Programming Enable bit
  7247                           ;	LVP = ON, RB3/PGM pin has PGM function, low voltage programming enabled
  7248                           ;	In-Circuit Debugger Mode bit
  7249                           ;	DEBUG = 0x1, unprogrammed default
  7250     2007                     	org	8199
  7251     2007  30D4               	dw	12500
  7252                           
  7253                           ;Config register CONFIG2 @ 0x2008
  7254                           ;	Brown-out Reset Selection bit
  7255                           ;	BOR4V = BOR40V, Brown-out Reset set to 4.0V
  7256                           ;	Flash Program Memory Self Write Enable bits
  7257                           ;	WRT = OFF, Write protection off
  7258     2008                     	org	8200
  7259     2008  3FFF               	dw	16383

Data Sizes:
    Strings     206
    Constant    0
    Data        0
    BSS         19
    Persistent  0
    Stack       0

Auto Spaces:
    Space          Size  Autos    Used
    COMMON           14     14      14
    BANK0            80     80      80
    BANK1            80     43      62
    BANK3            96      0       0
    BANK2            96      0       0

Pointer List with Targets:

    utoa@buf	PTR unsigned char  size(1) Largest target is 17
		 -> buffer(BANK1[17]), 

    sp__itoa	PTR unsigned char  size(1) Largest target is 0

    UART_write_char@c	PTR unsigned char  size(2) Largest target is 43
		 -> STR_9(CODE[2]), STR_8(CODE[26]), STR_7(CODE[43]), STR_6(CODE[2]), 
		 -> buffer(BANK1[17]), STR_5(CODE[17]), STR_4(CODE[21]), STR_3(CODE[34]), 
		 -> STR_2(CODE[43]), STR_1(CODE[4]), 

    Lcd_Write_String@a	PTR unsigned char  size(1) Largest target is 10
		 -> STR_11(CODE[10]), STR_10(CODE[6]), 

    sp__utoa	PTR unsigned char  size(1) Largest target is 17
		 -> buffer(BANK1[17]), 


Critical Paths under _main in COMMON

    _main->___lwmod
    _main->___xxtofl
    _utoa->___lwmod
    ___lwmod->___lwdiv
    _setup->_Lcd_Init
    _Lcd_Init->_Lcd_Cmd
    _map->___xxtofl
    ___flsub->___fladd
    ___fladd->__Umul8_16
    ___flmul->___fladd
    ___fldiv->___fladd
    ___fltol->___xxtofl
    _Lcd_Write_String->_Lcd_Write_Char
    _Lcd_Write_Char->_Lcd_Port
    _Lcd_Set_Cursor->_Lcd_Cmd
    _Lcd_Clear->_Lcd_Cmd
    _Lcd_Cmd->_Lcd_Port

Critical Paths under _main in BANK0

    _main->_map
    _map->___fldiv
    ___flsub->___fladd
    ___flmul->___flsub
    ___fldiv->___flmul
    ___fltol->_map
    _UART_write_char->_utoa

Critical Paths under _main in BANK1

    _main->___fltol
    ___fltol->_map

Critical Paths under _main in BANK3

    None.

Critical Paths under _main in BANK2

    None.

Call Graph Tables:

 ---------------------------------------------------------------------------------
 (Depth) Function   	        Calls       Base Space   Used Autos Params    Refs
 ---------------------------------------------------------------------------------
 (0) _main                                                13    13      0   17239
                                             30 BANK1     13    13      0
                          _Lcd_Clear
                     _Lcd_Set_Cursor
                     _Lcd_Write_Char
                   _Lcd_Write_String
                     _UART_read_char
                    _UART_write_char
                            ___fltol
                            ___lwdiv
                            ___lwmod
                           ___xxtofl
                           _adc_read
                                _map
                              _setup
                               _utoa
 ---------------------------------------------------------------------------------
 (1) _utoa                                                 9     5      4    2839
                                              0 BANK0      9     5      4
                            ___lwdiv
                            ___lwmod
 ---------------------------------------------------------------------------------
 (2) ___lwmod                                              6     2      4     919
                                              8 COMMON     6     2      4
                            ___lwdiv (ARG)
 ---------------------------------------------------------------------------------
 (2) ___lwdiv                                              8     4      4    1074
                                              0 COMMON     8     4      4
 ---------------------------------------------------------------------------------
 (1) _setup                                                0     0      0     360
                           _Lcd_Init
                     _UART_RX_CONFIG
                     _UART_TX_CONFIG
                           _adc_init
 ---------------------------------------------------------------------------------
 (2) _adc_init                                             3     1      2      98
                                              0 COMMON     3     1      2
 ---------------------------------------------------------------------------------
 (2) _UART_TX_CONFIG                                       2     0      2      98
                                              0 COMMON     2     0      2
 ---------------------------------------------------------------------------------
 (2) _UART_RX_CONFIG                                       2     0      2      98
                                              0 COMMON     2     0      2
 ---------------------------------------------------------------------------------
 (2) _Lcd_Init                                             2     2      0      66
                                              4 COMMON     2     2      0
                            _Lcd_Cmd
                           _Lcd_Port
 ---------------------------------------------------------------------------------
 (1) _map                                                 24     4     20    9324
                                             76 BANK0      4     4      0
                                              0 BANK1     20     0     20
                            ___fladd
                            ___fldiv
                            ___flmul
                            ___flsub
                           ___xxtofl (ARG)
 ---------------------------------------------------------------------------------
 (2) ___flsub                                              8     0      8    2789
                                             16 BANK0      8     0      8
                            ___fladd
 ---------------------------------------------------------------------------------
 (3) ___fladd                                             20    12      8    2288
                                              9 COMMON     4     4      0
                                              0 BANK0     16     8      8
                          __Umul8_16 (ARG)
 ---------------------------------------------------------------------------------
 (2) ___flmul                                             26    18      8    2417
                                             24 BANK0     26    18      8
                          __Umul8_16
                            ___fladd (ARG)
                            ___flsub (ARG)
 ---------------------------------------------------------------------------------
 (3) __Umul8_16                                            9     7      2     799
                                              0 COMMON     9     7      2
 ---------------------------------------------------------------------------------
 (2) ___fldiv                                             26    18      8    1273
                                             50 BANK0     26    18      8
                            ___fladd (ARG)
                            ___flmul (ARG)
                            ___flsub (ARG)
 ---------------------------------------------------------------------------------
 (1) _adc_read                                             6     4      2      23
                                              0 COMMON     6     4      2
 ---------------------------------------------------------------------------------
 (1) ___xxtofl                                            14    10      4     398
                                              0 COMMON    14    10      4
 ---------------------------------------------------------------------------------
 (1) ___fltol                                             10     6      4     305
                                             20 BANK1     10     6      4
                           ___xxtofl (ARG)
                                _map (ARG)
 ---------------------------------------------------------------------------------
 (2) _UART_write_char                                      2     0      2     881
                                              9 BANK0      2     0      2
                               _utoa (ARG)
 ---------------------------------------------------------------------------------
 (1) _UART_read_char                                       0     0      0       0
 ---------------------------------------------------------------------------------
 (1) _Lcd_Write_String                                     3     3      0     200
                                              3 COMMON     3     3      0
                     _Lcd_Write_Char
 ---------------------------------------------------------------------------------
 (2) _Lcd_Write_Char                                       2     2      0      44
                                              1 COMMON     2     2      0
                           _Lcd_Port
 ---------------------------------------------------------------------------------
 (1) _Lcd_Set_Cursor                                       5     4      1     482
                                              4 COMMON     3     2      1
                            _Lcd_Cmd
 ---------------------------------------------------------------------------------
 (1) _Lcd_Clear                                            0     0      0      44
                            _Lcd_Cmd
 ---------------------------------------------------------------------------------
 (3) _Lcd_Cmd                                              3     3      0      44
                                              1 COMMON     3     3      0
                           _Lcd_Port
 ---------------------------------------------------------------------------------
 (3) _Lcd_Port                                             1     1      0      22
                                              0 COMMON     1     1      0
 ---------------------------------------------------------------------------------
 Estimated maximum stack depth 3
 ---------------------------------------------------------------------------------

 Call Graph Graphs:

 _main (ROOT)
   _Lcd_Clear
     _Lcd_Cmd
       _Lcd_Port
   _Lcd_Set_Cursor
     _Lcd_Cmd
   _Lcd_Write_Char
     _Lcd_Port
   _Lcd_Write_String
     _Lcd_Write_Char
   _UART_read_char
   _UART_write_char
     _utoa (ARG)
       ___lwdiv
       ___lwmod
         ___lwdiv (ARG)
   ___fltol
     ___xxtofl (ARG)
     _map (ARG)
       ___fladd
         __Umul8_16 (ARG)
       ___fldiv
         ___fladd (ARG)
         ___flmul (ARG)
           __Umul8_16
           ___fladd (ARG)
           ___flsub (ARG)
             ___fladd
         ___flsub (ARG)
       ___flmul
       ___flsub
       ___xxtofl (ARG)
   ___lwdiv
   ___lwmod
   ___xxtofl
   _adc_read
   _map
   _setup
     _Lcd_Init
       _Lcd_Cmd
       _Lcd_Port
     _UART_RX_CONFIG
     _UART_TX_CONFIG
     _adc_init
   _utoa

 Address spaces:
Name               Size   Autos  Total    Cost      Usage
BITCOMMON            E      0       0       0        0.0%
EEDATA             100      0       0       0        0.0%
NULL                 0      0       0       0        0.0%
CODE                 0      0       0       0        0.0%
COMMON               E      E       E       1      100.0%
BITSFR0              0      0       0       1        0.0%
SFR0                 0      0       0       1        0.0%
BITSFR1              0      0       0       2        0.0%
SFR1                 0      0       0       2        0.0%
STACK                0      0       0       2        0.0%
ABS                  0      0      9C       3        0.0%
BITBANK0            50      0       0       4        0.0%
BITSFR3              0      0       0       4        0.0%
SFR3                 0      0       0       4        0.0%
BANK0               50     50      50       5      100.0%
BITSFR2              0      0       0       5        0.0%
SFR2                 0      0       0       5        0.0%
BITBANK1            50      0       0       6        0.0%
BANK1               50     2B      3E       7       77.5%
BITBANK3            60      0       0       8        0.0%
BANK3               60      0       0       9        0.0%
BITBANK2            60      0       0      10        0.0%
BANK2               60      0       0      11        0.0%
DATA                 0      0      9C      12        0.0%


Microchip Technology PIC Macro Assembler V2.40 build 20220703182018 
Symbol Table                                                                                   Fri Jul 28 19:01:41 2023

            ___fldiv@aexp 006B              ___fldiv@bexp 006A                         pc 0002  
            ___fldiv@sign 0063                        l30 0BB8                        l31 0C75  
                      l40 0C12                        l32 0BC2                        l41 0C1C  
                      l33 0BCC                        l50 1791                        l42 0C26  
                      l34 0BD6                        l51 179D                        l43 0C30  
                      l35 0BE0                        l44 0C3A                        l36 0BEA  
                      l45 0C89                        l37 0BF4                        l38 0BFE  
                      l39 0C08                        l48 178D                        fsr 0004  
     __Umul8_16@word_mpld 0076                       l131 0E3A                       l212 17CB  
                     l221 096E                       l126 0DD4                       l224 176E  
                     l208 17FF                       l144 09C4                       l136 0E9D  
                     l161 17E5                       l217 094A                       l170 08FF  
                     l147 0DA2                       l164 1789                       l173 0A8F  
                     l158 1774                       l182 0948                       l503 0065  
                     l176 17B3                       l506 007A                       l603 02A9  
                     l711 07E6                       l607 032E                       l720 0995  
                     l624 03FD                       l616 04AD                       l705 0762  
                     l609 0305                       l634 0443                       l628 0421  
                     l661 024D                       l645 04A3                       l637 0481  
                     l718 0983                       l646 04AD                       l582 0A42  
                     l743 0B21                       l496 007A                       l592 09FE  
                     l745 0BB6                       l681 0235                       l649 0923  
                     l770 0AE8                       l683 0243                       l675 01C3  
                     l659 00D1                       l756 0B80                       l772 0AFE  
                     l757 0B8C                       l749 0B64                       l699 07F2  
                     _RE2 004A                       _cpu 00CB                       _map 0C8A  
                     fsr0 0004                       indf 0000              ___flmul@aexp 004A  
            ___flmul@bexp 004B              ___flmul@sign 0045              ___flmul@temp 0050  
            ___flmul@prod 004C              ___fltol@exp1 00BD                      l2000 049F  
                    l2010 0979                      l2002 04A8                      l2012 097D  
                    l2004 04AC                      l2020 0BB7                      l2100 0A2A  
                    l2014 098C                      l2006 0970                      l2030 0C80  
                    l2102 0A30                      l2200 0122                      l2016 0991  
                    l2008 0972                      l2032 0C81                      l2024 0C44  
                    l2104 0A31                      l2120 09D9                      l2112 09C5  
                    l2050 17B0                      l2042 179F                      l2210 0147  
                    l2202 012A                      l2034 0C82                      l2026 0C79  
                    l2106 0A38                      l2122 09DD                      l2114 09CB  
                    l2130 09FA                      l2044 17A2                      l2220 0172  
                    l2212 0148                      l2204 012C                      l2140 007B  
                    l2300 04D8                      l2060 0A66                      l2052 0A43  
                    l2036 0C85                      l2028 0C7D                      l2108 0A3E  
                    l2124 09E7                      l2116 09CE                      l2046 17A8  
                    l2230 018F                      l2206 0131                      l2214 0151  
                    l2222 0176                      l2150 008E                      l2142 0080  
                    l2310 04EB                      l2302 04DD                      l2134 0900  
                    l2054 0A49                      l2070 17FA                      l2062 17E6  
                    l2126 09ED                      l2118 09D5                      l2048 17AB  
                    l2240 01A7                      l2232 0193                      l2224 017C  
                    l2216 0163                      l2208 0143                      l2160 00A6  
                    l2152 0093                      l2144 0084                      l2400 079D  
                    l2320 0507                      l2312 04F0                      l2304 04E1  
                    l2136 0904                      l2056 0A51                      l2072 17FD  
                    l2064 17EC                      l2080 17C4                      l2128 09F4  
                    l2250 01C8                      l2242 01A8                      l2234 0194  
                    l2226 0184                      l2218 0164                      l2170 00B9  
                    l2162 00AB                      l2154 009B                      l2146 0088  
                    l2410 07D0                      l2402 07AA                      l2330 0530  
                    l2322 050C                      l2314 04F8                      l2306 04E5  
                    l2058 0A60                      l2074 17FE                      l2066 17F5  
                    l2082 17C8                      l2090 0A07                      l2500 08F9  
                    l2252 01CD                      l2260 01FE                      l2244 01AC  
                    l2236 019D                      l2228 0186                      l2180 00D9  
                    l2172 00BE                      l2164 00AF                      l2156 009C  
                    l2148 0089                      l2412 07DC                      l2404 07B5  
                    l2340 05C9                      l2332 054B                      l2316 04FA  
                    l2308 04E6                      l2068 17F9                      l2084 17C9  
                    l2076 17B4                      l2092 0A0A                      l2502 0925  
                    l2510 0003                      l2422 178A                      l2270 0234  
                    l2262 020B                      l2254 01DB                      l2246 01C0  
                    l2238 01A3                      l2190 00F7                      l2182 00E5  
                    l2174 00C6                      l2166 00B3                      l2158 009E  
                    l2414 07E0                      l2406 07C4                      l2350 0628  
                    l2342 05D2                      l2334 0567                      l2326 0515  
                    l2318 0502                      l2078 17BB                      l2430 099E  
                    l2094 0A11                      l2086 09FF                      l1800 1770  
                    l2504 0928                      l2520 002B                      l2512 000E  
                    l2424 1792                      l2272 0239                      l2264 0219  
                    l2256 01DF                      l2184 00E9                      l2176 00C7  
                    l2168 00B4                      l2416 07E1                      l2408 07CE  
                    l2360 06C0                      l2352 063F                      l2344 05E0  
                    l2336 0591                      l2328 0523                      l2440 09BB  
                    l2432 09A6                      l2096 0A15                      l2088 0A01  
                    l2600 0DDA                      l1810 17E2                      l1802 17CD  
                    l2506 0935                      l2450 176B                      l2442 0949  
                    l2522 0033                      l2274 023D                      l2266 0228  
                    l2258 01F8                      l2194 0100                      l2178 00C9  
                    l2418 07EA                      l2370 072E                      l2362 06E6  
                    l2354 065C                      l2346 05FD                      l2338 05AD  
                    l2290 04BC                      l2282 04AE                      l2434 09AB  
                    l2098 0A19                      l2610 0E4A                      l2602 0DE4  
                    l1804 17D0                      l2508 093B                      l2444 094E  
                    l2540 005A                      l2532 0041                      l2524 0035  
                    l2516 0017                      l2276 023F                      l2268 022C  
                    l2196 0112                      l2188 00F2                      l2380 0746  
                    l2372 0732                      l2364 070E                      l2356 0687  
                    l2348 060B                      l2292 04C1                      l2284 04B3  
                    l1900 0314                      l1820 025C                      l1812 024E  
                    l2436 09B1                      l2428 0996                      l2460 0AAE  
                    l2620 0E8F                      l2612 0E52                      l2604 0E25  
                    l1806 17D6                      l2446 0958                      l2542 006A  
                    l2526 0039                      l2534 0053                      l2518 002A  
                    l2550 0B09                      l2198 011A                      l2390 0767  
                    l2382 0747                      l2374 0733                      l2366 0717  
                    l2358 0695                      l2294 04C6                      l2286 04B7  
                    l1910 0332                      l1902 031A                      l1822 0261  
                    l1830 0271                      l1814 0253                      l2438 09B2  
                    l2470 0ADE                      l2462 0AB4                      l2454 0A93  
                    l2630 0F24                      l2622 0E9A                      l2614 0E5C  
                    l2606 0E2F                      l1808 17D9                      l2448 095E  
                    l2544 006F                      l2560 0B35                      l2552 0B19  
                    l2392 076C                      l2384 074B                      l2376 073C  
                    l2368 0725                      l2296 04CE                      l2288 04BB  
                    l1920 035F                      l1912 0337                      l1904 031B  
                    l1840 0287                      l1832 0279                      l1824 0266  
                    l1816 0257                      l2480 0AF9                      l2472 0AE4  
                    l2464 0AB8                      l2456 0A97                      l2640 0F51  
                    l2632 0F36                      l2616 0E64                      l2608 0E40  
                    l2624 0EA1                      l2490 08E1                      l2570 0B6B  
                    l2562 0B42                      l2554 0B29                      l2546 0B00  
                    l2394 077A                      l2386 075F                      l2378 0742  
                    l2298 04D0                      l1930 0371                      l1922 0363  
                    l1906 0324                      l1850 029E                      l1842 028B  
                    l1834 027C                      l1826 026E                      l1818 025B  
                    l2474 0AEC                      l2466 0ABA                      l2458 0AAA  
                    l2650 0F75                      l2642 0F59                      l2634 0F3B  
                    l2626 0EF3                      l2618 0E6F                      l2492 08E6  
                    l2580 0BA4                      l2572 0B76                      l2564 0B49  
                    l2548 0B05                      l2396 077E                      l1940 03DB  
                    l1932 037A                      l1924 036A                      l1916 0342  
                    l1908 0328                      l1860 02B7                      l1852 029F  
                    l1844 028C                      l1836 0282                      l1828 026F  
                    l2484 0C8A                      l2476 0AF1                      l2468 0ACB  
                    l2660 0FC8                      l2652 0F89                      l2644 0F5F  
                    l2636 0F43                      l2628 0F05                      l2494 08E9  
                    l2582 0BA9                      l2574 0B7A                      l2566 0B4D  
                    l2558 0B32                      l2398 0797                      l1942 03E0  
                    l1926 036C                      l1918 035B                      l1934 037F  
                    l1870 02C1                      l1862 02B9                      l1846 0291  
                    l1854 02A1                      l1838 0283                      l2478 0AF3  
                    l2670 0FEE                      l2662 0FD0                      l2654 0FA8  
                    l2646 0F67                      l2638 0F49                      l2590 0DA3  
                    l2488 177D                      l2496 08F0                      l2584 0BAD  
                    l2576 0B84                      l2568 0B5B                      l1960 0428  
                    l1952 0413                      l1936 0397                      l1944 03EF  
                    l1928 0370                      l1880 02CB                      l1872 02C3  
                    l1864 02BB                      l1856 02AF                      l1848 0296  
                    l2664 0FD8                      l2656 0FBA                      l2648 0F6F  
                    l2592 0DA8                      l2498 08F6                      l2586 0BAE  
                    l2578 0B8E                      l1970 0436                      l1962 042A  
                    l1954 041C                      l1946 0405                      l1938 03D5  
                    l1882 02CD                      l1874 02C5                      l1866 02BD  
                    l1858 02B3                      l1890 02D5                      l2666 0FE0  
                    l2658 0FC2                      l2594 0DB3                      l1980 044D  
                    l1972 043A                      l1964 042F                      l1956 0420  
                    l1948 040A                      l1892 02D6                      l1884 02CF  
                    l1876 02C7                      l1868 02BF                      l2668 0FE8  
                    l2596 0DBE                      l1990 048B                      l1982 045B  
                    l1974 0440                      l1958 0425                      l1966 0431  
                    l1894 02ED                      l1886 02D1                      l1878 02C9  
                    l2598 0DC9                      ?_map 00A0                      l1992 0493  
                    l1984 045F                      l1968 0435                      l1896 0309  
                    l1888 02D3                      l2696 0C49                      l1994 0498  
                    l1986 047D                      l1978 0448                      l1898 0312  
                    l1996 0499                      l1988 0486                      l1998 049D  
                    _ADIF 0066                      STR_1 08D8                      STR_2 0810  
                    STR_3 0866                      STR_4 08A2                      STR_5 08B7  
                    STR_6 08DC                      STR_7 083B                      STR_8 0888  
                    STR_9 08DC                      u2010 0420                      u2011 041F  
                    u2100 046E                      u2020 0425                      u2021 0424  
                    u2005 0415                      u2110 047D                      u2030 042F  
                    u2111 047C                      u2031 042E                      u3000 07E0  
                    u2120 0486                      u2040 0435                      u2200 17F5  
                    u3001 07DF                      u2121 0485                      u2105 0469  
                    u2041 0434                      u2201 17F4                      u3010 1791  
                    u2130 048B                      u2050 043A                      u2210 17C4  
                    u3011 1790                      u2131 048A                      u2051 0439  
                    u2211 17C3                      u3020 094E                      u3100 000E  
                    u2140 0498                      u2060 0440                      u2220 0A07  
                    u3021 094D                      u3101 000D                      u2141 0497  
                    u2061 043F                      u2221 0A06                      u3030 096E  
                    u3110 0025                      u2150 049D                      u2070 0447  
                    u2310 09DD                      u3031 096D                      u2151 049C  
                    u2071 0446                      u2311 09DC                      u3120 0039  
                    u3200 0B05                      u2400 00BE                      u2160 04AC  
                    u2080 044D                      u2240 0A19                      u2320 09E7  
                    u3040 0AB4                      u3121 0038                      u3201 0B04  
                    u2401 00BD                      u2161 04AB                      u2081 044C  
                    u2241 0A18                      u2321 09E6                      u2305 09CF  
                    u3041 0AB3                      u3130 0040                      u3210 0B09  
                    u2410 00D9                      u2170 097D                      u2090 045F  
                    u3050 0AE4                      u3131 003F                      u3115 0020  
                    u3211 0B08                      u2411 00D8                      u2171 097C  
                    u2091 045E                      u2235 0A0B                      u3051 0AE3  
                    u3300 0B84                      u3220 0B29                      u2500 0184  
                    u2420 00F7                      u2260 0A2A                      u2340 09FA  
                    u3060 0AF9                      u3301 0B83                      u3221 0B28  
                    u2501 0183                      u2421 00F6                      u2261 0A29  
                    u2341 09F9                      u2325 09E3                      u3061 0AF8  
                    u3070 08E6                      u3150 0052                      u3310 0B99  
                    u2430 0131                      u2350 0088                      u2190 0991  
                    u1710 025B                      u3071 08E5                      u3151 0051  
                    u2431 0130                      u2351 0087                      u2191 0990  
                    u1711 025A                      u2255 0A1A                      u2335 09EE  
                    u3080 08F6                      u3160 0059                      u3320 0BA9  
                    u3240 0B48                      u2600 01EE                      u2520 0193  
                    u2360 008E                      u1800 02ED                      u1720 0261  
                    u2280 0A3E                      u3400 0EA1                      u3081 08F5  
                    u3161 0058                      u3145 0042                      u3321 0BA8  
                    u3241 0B47                      u2521 0192                      u2361 008D  
                    u2185 0984                      u1801 02EC                      u1721 0260  
                    u2281 0A3D                      u2265 0A26                      u3401 0EA0  
                    u3090 0948                      u3330 0BAD                      u2610 020B  
                    u2370 0093                      u1810 02F8                      u1730 0266  
                    u2290 09CB                      u3091 0947                      u3331 0BAC  
                    u3315 0B94                      u3235 0B3A                      u2611 020A  
                    u2515 0188                      u2371 0092                      u1811 02F6  
                    u1731 0265                      u2275 0A32                      u2291 09CA  
                    u3180 006A                      u3260 0B6A                      u2620 0228  
                    u2540 01A7                      u2460 0147                      u2380 00B3  
                    u2700 0507                      u1900 035F                      u1820 02F9  
                    u1740 0282                      u3340 0DDA                      u3181 0069  
                    u3261 0B69                      u2621 0227                      u2605 01E9  
                    u2541 01A6                      u2461 0146                      u2445 0133  
                    u2381 00B2                      u2701 0506                      u1901 035E  
                    u1805 02E9                      u1741 0281                      u3341 0DD9  
                    u3190 006F                      u2630 023D                      u2550 01AC  
                    u2390 00B9                      u2710 050C                      u1910 0363  
                    u1830 0309                      u1750 028B                      u3350 0DE4  
                    u3191 006E                      u3175 005C                      u3255 0B5C  
                    u2631 023C                      u2615 0207                      u2551 01AB  
                    u2535 0196                      u2455 013C                      u2391 00B8  
                    u2711 050B                      u1911 0362                      u1831 0308  
                    u1751 028A                      u3351 0DE3                      u3280 0B7A  
                    u2560 01C0                      u2480 0163                      u2640 04BB  
                    u1920 0370                      u1840 031A                      u1760 0291  
                    u3360 0E2F                      u3281 0B79                      u2625 0224  
                    u2561 01BF                      u2481 0162                      u2801 064E  
                    u2721 0559                      u2641 04BA                      u1921 036F  
                    u1841 0319                      u1761 0290                      u3417 0FF6  
                    u3361 0E2E                      u3290 0B80                      u2570 01C7  
                    u2490 017C                      u2802 0655                      u2722 0560  
                    u2650 04C1                      u1770 0296                      u3370 0E40  
                    u3291 0B7F                      u3275 0B6F                      u2571 01C6  
                    u2491 017B                      u2475 014A                      u2811 0679  
                    u2803 065C                      u2731 0575                      u2723 0567  
                    u2651 04C0                      u1771 0295                      u3427 0C87  
                    u3371 0E3F                      u2580 01CD                      u2812 0680  
                    u2732 057C                      u2660 04C6                      u1940 0397  
                    u1860 032E                      u1780 02AF                      u3380 0E4A  
                    u2581 01CC                      u2485 015F                      u2821 06A4  
                    u2813 0687                      u2741 059F                      u2733 0583  
                    u2661 04C5                      u1941 0396                      u1861 032D  
                    u1781 02AE                      u3437 0A4D                      u3381 0E49  
                    u2590 01DF                      u2910 0746                      u2830 06CC  
                    u2822 06AB                      u2742 05A6                      u2670 04E5  
                    u1870 0332                      u1790 02B3                      u3390 0E5C  
                    u2591 01DE                      u2911 0745                      u2823 06B2  
                    u2751 05BB                      u2743 05AD                      u2671 04E4  
                    u1951 03AE                      u1943 0393                      u1935 0373  
                    u1871 0331                      u1855 031D                      u1791 02B2  
                    u3447 0A5B                      u3391 0E5B                      u2920 074B  
                    u2752 05C2                      u2680 04EB                      u1960 03C2  
                    u1952 03AF                      u1880 0337                      u2921 074A  
                    u2905 0735                      u2841 06D8                      u2753 05C9  
                    u2681 04EA                      u1961 03C3                      u1953 03B4  
                    u1881 0336                      u3457 0A68                      u2930 075F  
                    u2850 06F4                      u2842 06DF                      u2690 04F0  
                    u1970 03E0                      u1962 03C8                      u1954 03B5  
                    u3467 17AD                      u2931 075E                      u2843 06E6  
                    u2835 06C7                      u2771 05EF                      u2691 04EF  
                    u1971 03DF                      u1963 03C9                      u1955 03BA  
                    u1891 034D                      u2940 0766                      u2772 05F6  
                    u1980 0405                      u1956 03BB                      u1892 0354  
                    u3477 17DD                      u2941 0765                      u2861 0700  
                    u2781 061A                      u2773 05FD                      u2765 05CB  
                    u1981 0404                      u1893 035B                      u2950 076C  
                    u2862 0707                      u2782 0621                      u1990 040A  
                    u2951 076B                      u2863 070E                      u2855 06EF  
                    u2783 0628                      u1991 0409                      u2960 077E  
                    u2961 077D                      u2970 078D                      u2890 0732  
                    u2891 0731                      u2875 0710                      u2795 062A  
                    u2980 07AA                      u2981 07A9                      u2885 0727  
                    u2990 07C4                      u2991 07C3                      u2975 0788  
                    u2985 07A6                      u2995 07C0         ?_Lcd_Write_String 0070  
                    _main 0DA3                      btemp 007E                      _utoa 0A90  
                    start 0000        ??_Lcd_Write_String 0073           ___fldiv@new_exp 0064  
             main@voltaje 00C1           __end_of_Lcd_Cmd 17E6          UART_write_char@c 0029  
                   ??_map 007E             ___fltol@sign1 00BC              main@contador 00C4  
         __end_of___fladd 04AE                     ?_main 0070           __end_of___fldiv 024E  
                   STR_10 08D2                     STR_11 08C8           __end_of___flmul 07F3  
         __end_of___flsub 0924           __end_of___fltol 007B                     _ANSEL 0188  
                   ?_utoa 0020           __end_of___lwdiv 0A43           __end_of___lwmod 09FF  
                   _RCREG 001A                     _SPBRG 0099                     _PORTD 0008  
                   _TRISD 0088                     _TRISE 0089                     _TXREG 0019  
                   _setup 0996                     pclath 000A                     utoa@c 0027  
                   utoa@v 0025                     status 0003                     wtemp0 007E  
        __end_of_Lcd_Init 0A90          __end_of_Lcd_Port 1775           __initialization 07F3  
            __end_of_main 1000              __end_of_utoa 0AFF                    ??_main 00BE  
                  ??_utoa 0024                    _ADRESH 001E                    ?_setup 0070  
                  _ANSELH 0189          __end_of_adc_init 0C8A          __end_of_adc_read 179E  
               ??_Lcd_Cmd 0071                    _SPBRGH 009A          __end_of___xxtofl 0BB7  
               ??___fladd 0028                 ??___fldiv 005A                 ??___flmul 0040  
               ??___flsub 007D                 ??___fltol 00B8                 ??___lwdiv 0074  
               ??___lwmod 007C                    _buffer 00CD           _UART_write_char 0949  
         Lcd_Set_Cursor@a 0075           Lcd_Set_Cursor@b 0074          adc_read@adcValue 0074  
            ___xxtofl@arg 007A              ___xxtofl@exp 0079              ___xxtofl@val 0070  
 __end_of__initialization 07FC         __end_of_Lcd_Clear 178A                ___fltol@f1 00B4  
          __pcstackCOMMON 0070             __end_of_setup 09C5            _Lcd_Set_Cursor 08E0  
               ?_Lcd_Init 0070                 ?_Lcd_Port 0070                   ??_setup 0076  
              __pbssBANK1 00CB         __end_of__Umul8_16 0996                __pmaintext 0DA3  
 __end_of_UART_write_char 096F    __end_of_Lcd_Set_Cursor 0900                 ?_adc_init 0070  
               ?_adc_read 0070            _UART_RX_CONFIG 17E6                 ?___xxtofl 0070  
          _UART_TX_CONFIG 17B4                ??_Lcd_Init 0074                ??_Lcd_Port 0070  
              __stringtab 0800            _Lcd_Write_Char 179E                   _Lcd_Cmd 17CC  
                 ___fladd 024E                   ___fldiv 007B                   ___flmul 04AE  
                 ___flsub 0900                   ___fltol 0003                   ___lwdiv 09FF  
                 ___lwmod 09C5    __end_of_UART_RX_CONFIG 1800                 _ANSELbits 0188  
         ?_Lcd_Set_Cursor 0074                ??_adc_init 0072                ??_adc_read 0072  
                 __ptext1 0A90                   __ptext2 09C5                   __ptext3 09FF  
                 __ptext4 0996                   __ptext5 0BB7                   __ptext6 17B4  
                 __ptext7 17E6                   __ptext8 0A43                   __ptext9 0C8A  
  __end_of_UART_TX_CONFIG 17CC                ??___xxtofl 0074                   clrloop0 1776  
  __end_of_Lcd_Write_Char 17B4      end_of_initialization 07FC                 _RCSTAbits 0018  
               Lcd_Port@a 0070                   utoa@buf 0028                   utoa@val 0020  
  UART_RX_CONFIG@baudrate 0070          ?_UART_write_char 0029           ?_UART_RX_CONFIG 0070  
               _PORTAbits 0005                 _PORTBbits 0006                 _PORTEbits 0009  
         ?_UART_TX_CONFIG 0070               ___fladd@grs 007C             ___xxtofl@sign 0078  
               _TRISAbits 0085                 _TRISBbits 0086                 _TRISEbits 0089  
              map@fromLow 00A4               ___fldiv@grs 0066               ___fldiv@rem 005F  
         ?_Lcd_Write_Char 0070         Lcd_Write_String@a 0075         Lcd_Write_String@i 0073  
             ___flmul@grs 0046                 _TXSTAbits 0098                 _Lcd_Clear 177D  
          _UART_read_char 176B          _Lcd_Write_String 0924               _BAUDCTLbits 0187  
     start_initialization 07F3               __end_of_map 0DA3                ?_Lcd_Clear 0070  
  __end_of_UART_read_char 176F                 __Umul8_16 096F           adc_init@channel 0070  
         Lcd_Write_Char@a 0072                 ___fladd@a 0024                 ___fladd@b 0020  
               ___fldiv@a 0052                 ___fldiv@b 0056                 ___flmul@a 003C  
               ___flmul@b 0038                 ___flsub@a 0030                 ___flsub@b 0034  
               ___latbits 0002             __pcstackBANK0 0020             __pcstackBANK1 00A0  
                ?_Lcd_Cmd 0070          ___lwdiv@dividend 0072          ??_Lcd_Set_Cursor 0075  
                ?___fladd 0020                  ?___fldiv 0052           ?_UART_read_char 0070  
                ?___flmul 0038                  ?___flsub 0030                  ?___fltol 00B4  
              ?__Umul8_16 0070                  ?___lwdiv 0070                  ?___lwmod 0078  
               __pstrings 0800          ___lwdiv@quotient 0075                 clear_ram0 1775  
                Lcd_Cmd@a 0073                  _PIR1bits 000C          ??_UART_RX_CONFIG 0072  
             ??_Lcd_Clear 0074          ??_UART_TX_CONFIG 0072                 map@toHigh 00B0  
              _ADCON0bits 001F               __stringbase 080F                _ADCON1bits 009F  
        ??_Lcd_Write_Char 0071                  _Lcd_Init 0A43                  _Lcd_Port 176F  
__end_of_Lcd_Write_String 0949               ??__Umul8_16 0072    UART_TX_CONFIG@baudrate 0070  
                _map$1292 006C        __end_of__stringtab 0810                  _adc_init 0BB7  
                _adc_read 178A                _ANSELHbits 0189                  ___xxtofl 0AFF  
         ___lwdiv@divisor 0070           ___lwdiv@counter 0077                  __ptext10 0900  
                __ptext11 024E                  __ptext20 0924                  __ptext12 04AE  
                __ptext21 179E                  __ptext13 096F                  __ptext22 08E0  
                __ptext14 007B                  __ptext23 177D                  __ptext15 178A  
                __ptext24 17CC                  __ptext16 0AFF                  __ptext25 176F  
                __ptext17 0003                  __ptext18 0949                  __ptext19 176B  
                map@toLow 00AC                  map@value 00A0                  main@adcV 00C7  
                main@temp 00C9          ___lwmod@dividend 007A          ??_UART_read_char 0070  
               stringcode 080A                _OSCCONbits 008F        Lcd_Set_Cursor@temp 0076  
                utoa@base 0022    __Umul8_16@multiplicand 0070           ___lwmod@divisor 0078  
         ___lwmod@counter 007D                  stringdir 080A                  stringtab 0800  
           ___fladd@signs 0079         ??_UART_write_char 007E              ___fladd@aexp 007A  
            ___fladd@bexp 007B      __Umul8_16@multiplier 0078               map@fromHigh 00A8  
       __Umul8_16@product 0074  
